
BAT_CHARGER.elf:     file format elf32-littlearm

Sections:
Idx Name          Size      VMA       LMA       File off  Algn
  0 .isr_vector   000001d0  08000000  08000000  00001000  2**0
                  CONTENTS, ALLOC, LOAD, READONLY, DATA
  1 .text         000039a0  080001d0  080001d0  000011d0  2**2
                  CONTENTS, ALLOC, LOAD, READONLY, CODE
  2 .rodata       00000180  08003b70  08003b70  00004b70  2**3
                  CONTENTS, ALLOC, LOAD, READONLY, DATA
  3 .ARM.extab    00000000  08003cf0  08003cf0  00005064  2**0
                  CONTENTS, READONLY
  4 .ARM          00000000  08003cf0  08003cf0  00005064  2**0
                  CONTENTS, READONLY
  5 .preinit_array 00000000  08003cf0  08003cf0  00005064  2**0
                  CONTENTS, ALLOC, LOAD, DATA
  6 .init_array   00000004  08003cf0  08003cf0  00004cf0  2**2
                  CONTENTS, ALLOC, LOAD, READONLY, DATA
  7 .fini_array   00000004  08003cf4  08003cf4  00004cf4  2**2
                  CONTENTS, ALLOC, LOAD, READONLY, DATA
  8 .data         00000064  20000000  08003cf8  00005000  2**2
                  CONTENTS, ALLOC, LOAD, DATA
  9 .bss          00000434  20000068  08003d5c  00005068  2**3
                  ALLOC
 10 ._user_heap_stack 00000604  2000049c  08003d5c  0000549c  2**0
                  ALLOC
 11 .ARM.attributes 00000029  00000000  00000000  00005064  2**0
                  CONTENTS, READONLY
 12 .debug_info   00018b6b  00000000  00000000  0000508d  2**0
                  CONTENTS, READONLY, DEBUGGING, OCTETS
 13 .debug_abbrev 00003106  00000000  00000000  0001dbf8  2**0
                  CONTENTS, READONLY, DEBUGGING, OCTETS
 14 .debug_loclists 0000d95b  00000000  00000000  00020cfe  2**0
                  CONTENTS, READONLY, DEBUGGING, OCTETS
 15 .debug_aranges 00000f68  00000000  00000000  0002e660  2**3
                  CONTENTS, READONLY, DEBUGGING, OCTETS
 16 .debug_rnglists 00000de5  00000000  00000000  0002f5c8  2**0
                  CONTENTS, READONLY, DEBUGGING, OCTETS
 17 .debug_macro  00014e2c  00000000  00000000  000303ad  2**0
                  CONTENTS, READONLY, DEBUGGING, OCTETS
 18 .debug_line   0001bd45  00000000  00000000  000451d9  2**0
                  CONTENTS, READONLY, DEBUGGING, OCTETS
 19 .debug_str    0007b27c  00000000  00000000  00060f1e  2**0
                  CONTENTS, READONLY, DEBUGGING, OCTETS
 20 .comment      00000043  00000000  00000000  000dc19a  2**0
                  CONTENTS, READONLY
 21 .debug_frame  00002e34  00000000  00000000  000dc1e0  2**2
                  CONTENTS, READONLY, DEBUGGING, OCTETS
 22 .debug_line_str 00000066  00000000  00000000  000df014  2**0
                  CONTENTS, READONLY, DEBUGGING, OCTETS

Disassembly of section .text:

080001d0 <__do_global_dtors_aux>:
 80001d0:	b510      	push	{r4, lr}
 80001d2:	4c05      	ldr	r4, [pc, #20]	@ (80001e8 <__do_global_dtors_aux+0x18>)
 80001d4:	7823      	ldrb	r3, [r4, #0]
 80001d6:	b933      	cbnz	r3, 80001e6 <__do_global_dtors_aux+0x16>
 80001d8:	4b04      	ldr	r3, [pc, #16]	@ (80001ec <__do_global_dtors_aux+0x1c>)
 80001da:	b113      	cbz	r3, 80001e2 <__do_global_dtors_aux+0x12>
 80001dc:	4804      	ldr	r0, [pc, #16]	@ (80001f0 <__do_global_dtors_aux+0x20>)
 80001de:	f3af 8000 	nop.w
 80001e2:	2301      	movs	r3, #1
 80001e4:	7023      	strb	r3, [r4, #0]
 80001e6:	bd10      	pop	{r4, pc}
 80001e8:	20000068 	.word	0x20000068
 80001ec:	00000000 	.word	0x00000000
 80001f0:	08003b58 	.word	0x08003b58

080001f4 <frame_dummy>:
 80001f4:	b508      	push	{r3, lr}
 80001f6:	4b03      	ldr	r3, [pc, #12]	@ (8000204 <frame_dummy+0x10>)
 80001f8:	b11b      	cbz	r3, 8000202 <frame_dummy+0xe>
 80001fa:	4903      	ldr	r1, [pc, #12]	@ (8000208 <frame_dummy+0x14>)
 80001fc:	4803      	ldr	r0, [pc, #12]	@ (800020c <frame_dummy+0x18>)
 80001fe:	f3af 8000 	nop.w
 8000202:	bd08      	pop	{r3, pc}
 8000204:	00000000 	.word	0x00000000
 8000208:	2000006c 	.word	0x2000006c
 800020c:	08003b58 	.word	0x08003b58

08000210 <__aeabi_drsub>:
 8000210:	f081 4100 	eor.w	r1, r1, #2147483648	@ 0x80000000
 8000214:	e002      	b.n	800021c <__adddf3>
 8000216:	bf00      	nop

08000218 <__aeabi_dsub>:
 8000218:	f083 4300 	eor.w	r3, r3, #2147483648	@ 0x80000000

0800021c <__adddf3>:
 800021c:	b530      	push	{r4, r5, lr}
 800021e:	ea4f 0441 	mov.w	r4, r1, lsl #1
 8000222:	ea4f 0543 	mov.w	r5, r3, lsl #1
 8000226:	ea94 0f05 	teq	r4, r5
 800022a:	bf08      	it	eq
 800022c:	ea90 0f02 	teqeq	r0, r2
 8000230:	bf1f      	itttt	ne
 8000232:	ea54 0c00 	orrsne.w	ip, r4, r0
 8000236:	ea55 0c02 	orrsne.w	ip, r5, r2
 800023a:	ea7f 5c64 	mvnsne.w	ip, r4, asr #21
 800023e:	ea7f 5c65 	mvnsne.w	ip, r5, asr #21
 8000242:	f000 80e2 	beq.w	800040a <__adddf3+0x1ee>
 8000246:	ea4f 5454 	mov.w	r4, r4, lsr #21
 800024a:	ebd4 5555 	rsbs	r5, r4, r5, lsr #21
 800024e:	bfb8      	it	lt
 8000250:	426d      	neglt	r5, r5
 8000252:	dd0c      	ble.n	800026e <__adddf3+0x52>
 8000254:	442c      	add	r4, r5
 8000256:	ea80 0202 	eor.w	r2, r0, r2
 800025a:	ea81 0303 	eor.w	r3, r1, r3
 800025e:	ea82 0000 	eor.w	r0, r2, r0
 8000262:	ea83 0101 	eor.w	r1, r3, r1
 8000266:	ea80 0202 	eor.w	r2, r0, r2
 800026a:	ea81 0303 	eor.w	r3, r1, r3
 800026e:	2d36      	cmp	r5, #54	@ 0x36
 8000270:	bf88      	it	hi
 8000272:	bd30      	pophi	{r4, r5, pc}
 8000274:	f011 4f00 	tst.w	r1, #2147483648	@ 0x80000000
 8000278:	ea4f 3101 	mov.w	r1, r1, lsl #12
 800027c:	f44f 1c80 	mov.w	ip, #1048576	@ 0x100000
 8000280:	ea4c 3111 	orr.w	r1, ip, r1, lsr #12
 8000284:	d002      	beq.n	800028c <__adddf3+0x70>
 8000286:	4240      	negs	r0, r0
 8000288:	eb61 0141 	sbc.w	r1, r1, r1, lsl #1
 800028c:	f013 4f00 	tst.w	r3, #2147483648	@ 0x80000000
 8000290:	ea4f 3303 	mov.w	r3, r3, lsl #12
 8000294:	ea4c 3313 	orr.w	r3, ip, r3, lsr #12
 8000298:	d002      	beq.n	80002a0 <__adddf3+0x84>
 800029a:	4252      	negs	r2, r2
 800029c:	eb63 0343 	sbc.w	r3, r3, r3, lsl #1
 80002a0:	ea94 0f05 	teq	r4, r5
 80002a4:	f000 80a7 	beq.w	80003f6 <__adddf3+0x1da>
 80002a8:	f1a4 0401 	sub.w	r4, r4, #1
 80002ac:	f1d5 0e20 	rsbs	lr, r5, #32
 80002b0:	db0d      	blt.n	80002ce <__adddf3+0xb2>
 80002b2:	fa02 fc0e 	lsl.w	ip, r2, lr
 80002b6:	fa22 f205 	lsr.w	r2, r2, r5
 80002ba:	1880      	adds	r0, r0, r2
 80002bc:	f141 0100 	adc.w	r1, r1, #0
 80002c0:	fa03 f20e 	lsl.w	r2, r3, lr
 80002c4:	1880      	adds	r0, r0, r2
 80002c6:	fa43 f305 	asr.w	r3, r3, r5
 80002ca:	4159      	adcs	r1, r3
 80002cc:	e00e      	b.n	80002ec <__adddf3+0xd0>
 80002ce:	f1a5 0520 	sub.w	r5, r5, #32
 80002d2:	f10e 0e20 	add.w	lr, lr, #32
 80002d6:	2a01      	cmp	r2, #1
 80002d8:	fa03 fc0e 	lsl.w	ip, r3, lr
 80002dc:	bf28      	it	cs
 80002de:	f04c 0c02 	orrcs.w	ip, ip, #2
 80002e2:	fa43 f305 	asr.w	r3, r3, r5
 80002e6:	18c0      	adds	r0, r0, r3
 80002e8:	eb51 71e3 	adcs.w	r1, r1, r3, asr #31
 80002ec:	f001 4500 	and.w	r5, r1, #2147483648	@ 0x80000000
 80002f0:	d507      	bpl.n	8000302 <__adddf3+0xe6>
 80002f2:	f04f 0e00 	mov.w	lr, #0
 80002f6:	f1dc 0c00 	rsbs	ip, ip, #0
 80002fa:	eb7e 0000 	sbcs.w	r0, lr, r0
 80002fe:	eb6e 0101 	sbc.w	r1, lr, r1
 8000302:	f5b1 1f80 	cmp.w	r1, #1048576	@ 0x100000
 8000306:	d31b      	bcc.n	8000340 <__adddf3+0x124>
 8000308:	f5b1 1f00 	cmp.w	r1, #2097152	@ 0x200000
 800030c:	d30c      	bcc.n	8000328 <__adddf3+0x10c>
 800030e:	0849      	lsrs	r1, r1, #1
 8000310:	ea5f 0030 	movs.w	r0, r0, rrx
 8000314:	ea4f 0c3c 	mov.w	ip, ip, rrx
 8000318:	f104 0401 	add.w	r4, r4, #1
 800031c:	ea4f 5244 	mov.w	r2, r4, lsl #21
 8000320:	f512 0f80 	cmn.w	r2, #4194304	@ 0x400000
 8000324:	f080 809a 	bcs.w	800045c <__adddf3+0x240>
 8000328:	f1bc 4f00 	cmp.w	ip, #2147483648	@ 0x80000000
 800032c:	bf08      	it	eq
 800032e:	ea5f 0c50 	movseq.w	ip, r0, lsr #1
 8000332:	f150 0000 	adcs.w	r0, r0, #0
 8000336:	eb41 5104 	adc.w	r1, r1, r4, lsl #20
 800033a:	ea41 0105 	orr.w	r1, r1, r5
 800033e:	bd30      	pop	{r4, r5, pc}
 8000340:	ea5f 0c4c 	movs.w	ip, ip, lsl #1
 8000344:	4140      	adcs	r0, r0
 8000346:	eb41 0101 	adc.w	r1, r1, r1
 800034a:	3c01      	subs	r4, #1
 800034c:	bf28      	it	cs
 800034e:	f5b1 1f80 	cmpcs.w	r1, #1048576	@ 0x100000
 8000352:	d2e9      	bcs.n	8000328 <__adddf3+0x10c>
 8000354:	f091 0f00 	teq	r1, #0
 8000358:	bf04      	itt	eq
 800035a:	4601      	moveq	r1, r0
 800035c:	2000      	moveq	r0, #0
 800035e:	fab1 f381 	clz	r3, r1
 8000362:	bf08      	it	eq
 8000364:	3320      	addeq	r3, #32
 8000366:	f1a3 030b 	sub.w	r3, r3, #11
 800036a:	f1b3 0220 	subs.w	r2, r3, #32
 800036e:	da0c      	bge.n	800038a <__adddf3+0x16e>
 8000370:	320c      	adds	r2, #12
 8000372:	dd08      	ble.n	8000386 <__adddf3+0x16a>
 8000374:	f102 0c14 	add.w	ip, r2, #20
 8000378:	f1c2 020c 	rsb	r2, r2, #12
 800037c:	fa01 f00c 	lsl.w	r0, r1, ip
 8000380:	fa21 f102 	lsr.w	r1, r1, r2
 8000384:	e00c      	b.n	80003a0 <__adddf3+0x184>
 8000386:	f102 0214 	add.w	r2, r2, #20
 800038a:	bfd8      	it	le
 800038c:	f1c2 0c20 	rsble	ip, r2, #32
 8000390:	fa01 f102 	lsl.w	r1, r1, r2
 8000394:	fa20 fc0c 	lsr.w	ip, r0, ip
 8000398:	bfdc      	itt	le
 800039a:	ea41 010c 	orrle.w	r1, r1, ip
 800039e:	4090      	lslle	r0, r2
 80003a0:	1ae4      	subs	r4, r4, r3
 80003a2:	bfa2      	ittt	ge
 80003a4:	eb01 5104 	addge.w	r1, r1, r4, lsl #20
 80003a8:	4329      	orrge	r1, r5
 80003aa:	bd30      	popge	{r4, r5, pc}
 80003ac:	ea6f 0404 	mvn.w	r4, r4
 80003b0:	3c1f      	subs	r4, #31
 80003b2:	da1c      	bge.n	80003ee <__adddf3+0x1d2>
 80003b4:	340c      	adds	r4, #12
 80003b6:	dc0e      	bgt.n	80003d6 <__adddf3+0x1ba>
 80003b8:	f104 0414 	add.w	r4, r4, #20
 80003bc:	f1c4 0220 	rsb	r2, r4, #32
 80003c0:	fa20 f004 	lsr.w	r0, r0, r4
 80003c4:	fa01 f302 	lsl.w	r3, r1, r2
 80003c8:	ea40 0003 	orr.w	r0, r0, r3
 80003cc:	fa21 f304 	lsr.w	r3, r1, r4
 80003d0:	ea45 0103 	orr.w	r1, r5, r3
 80003d4:	bd30      	pop	{r4, r5, pc}
 80003d6:	f1c4 040c 	rsb	r4, r4, #12
 80003da:	f1c4 0220 	rsb	r2, r4, #32
 80003de:	fa20 f002 	lsr.w	r0, r0, r2
 80003e2:	fa01 f304 	lsl.w	r3, r1, r4
 80003e6:	ea40 0003 	orr.w	r0, r0, r3
 80003ea:	4629      	mov	r1, r5
 80003ec:	bd30      	pop	{r4, r5, pc}
 80003ee:	fa21 f004 	lsr.w	r0, r1, r4
 80003f2:	4629      	mov	r1, r5
 80003f4:	bd30      	pop	{r4, r5, pc}
 80003f6:	f094 0f00 	teq	r4, #0
 80003fa:	f483 1380 	eor.w	r3, r3, #1048576	@ 0x100000
 80003fe:	bf06      	itte	eq
 8000400:	f481 1180 	eoreq.w	r1, r1, #1048576	@ 0x100000
 8000404:	3401      	addeq	r4, #1
 8000406:	3d01      	subne	r5, #1
 8000408:	e74e      	b.n	80002a8 <__adddf3+0x8c>
 800040a:	ea7f 5c64 	mvns.w	ip, r4, asr #21
 800040e:	bf18      	it	ne
 8000410:	ea7f 5c65 	mvnsne.w	ip, r5, asr #21
 8000414:	d029      	beq.n	800046a <__adddf3+0x24e>
 8000416:	ea94 0f05 	teq	r4, r5
 800041a:	bf08      	it	eq
 800041c:	ea90 0f02 	teqeq	r0, r2
 8000420:	d005      	beq.n	800042e <__adddf3+0x212>
 8000422:	ea54 0c00 	orrs.w	ip, r4, r0
 8000426:	bf04      	itt	eq
 8000428:	4619      	moveq	r1, r3
 800042a:	4610      	moveq	r0, r2
 800042c:	bd30      	pop	{r4, r5, pc}
 800042e:	ea91 0f03 	teq	r1, r3
 8000432:	bf1e      	ittt	ne
 8000434:	2100      	movne	r1, #0
 8000436:	2000      	movne	r0, #0
 8000438:	bd30      	popne	{r4, r5, pc}
 800043a:	ea5f 5c54 	movs.w	ip, r4, lsr #21
 800043e:	d105      	bne.n	800044c <__adddf3+0x230>
 8000440:	0040      	lsls	r0, r0, #1
 8000442:	4149      	adcs	r1, r1
 8000444:	bf28      	it	cs
 8000446:	f041 4100 	orrcs.w	r1, r1, #2147483648	@ 0x80000000
 800044a:	bd30      	pop	{r4, r5, pc}
 800044c:	f514 0480 	adds.w	r4, r4, #4194304	@ 0x400000
 8000450:	bf3c      	itt	cc
 8000452:	f501 1180 	addcc.w	r1, r1, #1048576	@ 0x100000
 8000456:	bd30      	popcc	{r4, r5, pc}
 8000458:	f001 4500 	and.w	r5, r1, #2147483648	@ 0x80000000
 800045c:	f045 41fe 	orr.w	r1, r5, #2130706432	@ 0x7f000000
 8000460:	f441 0170 	orr.w	r1, r1, #15728640	@ 0xf00000
 8000464:	f04f 0000 	mov.w	r0, #0
 8000468:	bd30      	pop	{r4, r5, pc}
 800046a:	ea7f 5c64 	mvns.w	ip, r4, asr #21
 800046e:	bf1a      	itte	ne
 8000470:	4619      	movne	r1, r3
 8000472:	4610      	movne	r0, r2
 8000474:	ea7f 5c65 	mvnseq.w	ip, r5, asr #21
 8000478:	bf1c      	itt	ne
 800047a:	460b      	movne	r3, r1
 800047c:	4602      	movne	r2, r0
 800047e:	ea50 3401 	orrs.w	r4, r0, r1, lsl #12
 8000482:	bf06      	itte	eq
 8000484:	ea52 3503 	orrseq.w	r5, r2, r3, lsl #12
 8000488:	ea91 0f03 	teqeq	r1, r3
 800048c:	f441 2100 	orrne.w	r1, r1, #524288	@ 0x80000
 8000490:	bd30      	pop	{r4, r5, pc}
 8000492:	bf00      	nop

08000494 <__aeabi_ui2d>:
 8000494:	f090 0f00 	teq	r0, #0
 8000498:	bf04      	itt	eq
 800049a:	2100      	moveq	r1, #0
 800049c:	4770      	bxeq	lr
 800049e:	b530      	push	{r4, r5, lr}
 80004a0:	f44f 6480 	mov.w	r4, #1024	@ 0x400
 80004a4:	f104 0432 	add.w	r4, r4, #50	@ 0x32
 80004a8:	f04f 0500 	mov.w	r5, #0
 80004ac:	f04f 0100 	mov.w	r1, #0
 80004b0:	e750      	b.n	8000354 <__adddf3+0x138>
 80004b2:	bf00      	nop

080004b4 <__aeabi_i2d>:
 80004b4:	f090 0f00 	teq	r0, #0
 80004b8:	bf04      	itt	eq
 80004ba:	2100      	moveq	r1, #0
 80004bc:	4770      	bxeq	lr
 80004be:	b530      	push	{r4, r5, lr}
 80004c0:	f44f 6480 	mov.w	r4, #1024	@ 0x400
 80004c4:	f104 0432 	add.w	r4, r4, #50	@ 0x32
 80004c8:	f010 4500 	ands.w	r5, r0, #2147483648	@ 0x80000000
 80004cc:	bf48      	it	mi
 80004ce:	4240      	negmi	r0, r0
 80004d0:	f04f 0100 	mov.w	r1, #0
 80004d4:	e73e      	b.n	8000354 <__adddf3+0x138>
 80004d6:	bf00      	nop

080004d8 <__aeabi_f2d>:
 80004d8:	0042      	lsls	r2, r0, #1
 80004da:	ea4f 01e2 	mov.w	r1, r2, asr #3
 80004de:	ea4f 0131 	mov.w	r1, r1, rrx
 80004e2:	ea4f 7002 	mov.w	r0, r2, lsl #28
 80004e6:	bf1f      	itttt	ne
 80004e8:	f012 437f 	andsne.w	r3, r2, #4278190080	@ 0xff000000
 80004ec:	f093 4f7f 	teqne	r3, #4278190080	@ 0xff000000
 80004f0:	f081 5160 	eorne.w	r1, r1, #939524096	@ 0x38000000
 80004f4:	4770      	bxne	lr
 80004f6:	f032 427f 	bics.w	r2, r2, #4278190080	@ 0xff000000
 80004fa:	bf08      	it	eq
 80004fc:	4770      	bxeq	lr
 80004fe:	f093 4f7f 	teq	r3, #4278190080	@ 0xff000000
 8000502:	bf04      	itt	eq
 8000504:	f441 2100 	orreq.w	r1, r1, #524288	@ 0x80000
 8000508:	4770      	bxeq	lr
 800050a:	b530      	push	{r4, r5, lr}
 800050c:	f44f 7460 	mov.w	r4, #896	@ 0x380
 8000510:	f001 4500 	and.w	r5, r1, #2147483648	@ 0x80000000
 8000514:	f021 4100 	bic.w	r1, r1, #2147483648	@ 0x80000000
 8000518:	e71c      	b.n	8000354 <__adddf3+0x138>
 800051a:	bf00      	nop

0800051c <__aeabi_ul2d>:
 800051c:	ea50 0201 	orrs.w	r2, r0, r1
 8000520:	bf08      	it	eq
 8000522:	4770      	bxeq	lr
 8000524:	b530      	push	{r4, r5, lr}
 8000526:	f04f 0500 	mov.w	r5, #0
 800052a:	e00a      	b.n	8000542 <__aeabi_l2d+0x16>

0800052c <__aeabi_l2d>:
 800052c:	ea50 0201 	orrs.w	r2, r0, r1
 8000530:	bf08      	it	eq
 8000532:	4770      	bxeq	lr
 8000534:	b530      	push	{r4, r5, lr}
 8000536:	f011 4500 	ands.w	r5, r1, #2147483648	@ 0x80000000
 800053a:	d502      	bpl.n	8000542 <__aeabi_l2d+0x16>
 800053c:	4240      	negs	r0, r0
 800053e:	eb61 0141 	sbc.w	r1, r1, r1, lsl #1
 8000542:	f44f 6480 	mov.w	r4, #1024	@ 0x400
 8000546:	f104 0432 	add.w	r4, r4, #50	@ 0x32
 800054a:	ea5f 5c91 	movs.w	ip, r1, lsr #22
 800054e:	f43f aed8 	beq.w	8000302 <__adddf3+0xe6>
 8000552:	f04f 0203 	mov.w	r2, #3
 8000556:	ea5f 0cdc 	movs.w	ip, ip, lsr #3
 800055a:	bf18      	it	ne
 800055c:	3203      	addne	r2, #3
 800055e:	ea5f 0cdc 	movs.w	ip, ip, lsr #3
 8000562:	bf18      	it	ne
 8000564:	3203      	addne	r2, #3
 8000566:	eb02 02dc 	add.w	r2, r2, ip, lsr #3
 800056a:	f1c2 0320 	rsb	r3, r2, #32
 800056e:	fa00 fc03 	lsl.w	ip, r0, r3
 8000572:	fa20 f002 	lsr.w	r0, r0, r2
 8000576:	fa01 fe03 	lsl.w	lr, r1, r3
 800057a:	ea40 000e 	orr.w	r0, r0, lr
 800057e:	fa21 f102 	lsr.w	r1, r1, r2
 8000582:	4414      	add	r4, r2
 8000584:	e6bd      	b.n	8000302 <__adddf3+0xe6>
 8000586:	bf00      	nop

08000588 <__aeabi_dmul>:
 8000588:	b570      	push	{r4, r5, r6, lr}
 800058a:	f04f 0cff 	mov.w	ip, #255	@ 0xff
 800058e:	f44c 6ce0 	orr.w	ip, ip, #1792	@ 0x700
 8000592:	ea1c 5411 	ands.w	r4, ip, r1, lsr #20
 8000596:	bf1d      	ittte	ne
 8000598:	ea1c 5513 	andsne.w	r5, ip, r3, lsr #20
 800059c:	ea94 0f0c 	teqne	r4, ip
 80005a0:	ea95 0f0c 	teqne	r5, ip
 80005a4:	f000 f8de 	bleq	8000764 <__aeabi_dmul+0x1dc>
 80005a8:	442c      	add	r4, r5
 80005aa:	ea81 0603 	eor.w	r6, r1, r3
 80005ae:	ea21 514c 	bic.w	r1, r1, ip, lsl #21
 80005b2:	ea23 534c 	bic.w	r3, r3, ip, lsl #21
 80005b6:	ea50 3501 	orrs.w	r5, r0, r1, lsl #12
 80005ba:	bf18      	it	ne
 80005bc:	ea52 3503 	orrsne.w	r5, r2, r3, lsl #12
 80005c0:	f441 1180 	orr.w	r1, r1, #1048576	@ 0x100000
 80005c4:	f443 1380 	orr.w	r3, r3, #1048576	@ 0x100000
 80005c8:	d038      	beq.n	800063c <__aeabi_dmul+0xb4>
 80005ca:	fba0 ce02 	umull	ip, lr, r0, r2
 80005ce:	f04f 0500 	mov.w	r5, #0
 80005d2:	fbe1 e502 	umlal	lr, r5, r1, r2
 80005d6:	f006 4200 	and.w	r2, r6, #2147483648	@ 0x80000000
 80005da:	fbe0 e503 	umlal	lr, r5, r0, r3
 80005de:	f04f 0600 	mov.w	r6, #0
 80005e2:	fbe1 5603 	umlal	r5, r6, r1, r3
 80005e6:	f09c 0f00 	teq	ip, #0
 80005ea:	bf18      	it	ne
 80005ec:	f04e 0e01 	orrne.w	lr, lr, #1
 80005f0:	f1a4 04ff 	sub.w	r4, r4, #255	@ 0xff
 80005f4:	f5b6 7f00 	cmp.w	r6, #512	@ 0x200
 80005f8:	f564 7440 	sbc.w	r4, r4, #768	@ 0x300
 80005fc:	d204      	bcs.n	8000608 <__aeabi_dmul+0x80>
 80005fe:	ea5f 0e4e 	movs.w	lr, lr, lsl #1
 8000602:	416d      	adcs	r5, r5
 8000604:	eb46 0606 	adc.w	r6, r6, r6
 8000608:	ea42 21c6 	orr.w	r1, r2, r6, lsl #11
 800060c:	ea41 5155 	orr.w	r1, r1, r5, lsr #21
 8000610:	ea4f 20c5 	mov.w	r0, r5, lsl #11
 8000614:	ea40 505e 	orr.w	r0, r0, lr, lsr #21
 8000618:	ea4f 2ece 	mov.w	lr, lr, lsl #11
 800061c:	f1b4 0cfd 	subs.w	ip, r4, #253	@ 0xfd
 8000620:	bf88      	it	hi
 8000622:	f5bc 6fe0 	cmphi.w	ip, #1792	@ 0x700
 8000626:	d81e      	bhi.n	8000666 <__aeabi_dmul+0xde>
 8000628:	f1be 4f00 	cmp.w	lr, #2147483648	@ 0x80000000
 800062c:	bf08      	it	eq
 800062e:	ea5f 0e50 	movseq.w	lr, r0, lsr #1
 8000632:	f150 0000 	adcs.w	r0, r0, #0
 8000636:	eb41 5104 	adc.w	r1, r1, r4, lsl #20
 800063a:	bd70      	pop	{r4, r5, r6, pc}
 800063c:	f006 4600 	and.w	r6, r6, #2147483648	@ 0x80000000
 8000640:	ea46 0101 	orr.w	r1, r6, r1
 8000644:	ea40 0002 	orr.w	r0, r0, r2
 8000648:	ea81 0103 	eor.w	r1, r1, r3
 800064c:	ebb4 045c 	subs.w	r4, r4, ip, lsr #1
 8000650:	bfc2      	ittt	gt
 8000652:	ebd4 050c 	rsbsgt	r5, r4, ip
 8000656:	ea41 5104 	orrgt.w	r1, r1, r4, lsl #20
 800065a:	bd70      	popgt	{r4, r5, r6, pc}
 800065c:	f441 1180 	orr.w	r1, r1, #1048576	@ 0x100000
 8000660:	f04f 0e00 	mov.w	lr, #0
 8000664:	3c01      	subs	r4, #1
 8000666:	f300 80ab 	bgt.w	80007c0 <__aeabi_dmul+0x238>
 800066a:	f114 0f36 	cmn.w	r4, #54	@ 0x36
 800066e:	bfde      	ittt	le
 8000670:	2000      	movle	r0, #0
 8000672:	f001 4100 	andle.w	r1, r1, #2147483648	@ 0x80000000
 8000676:	bd70      	pople	{r4, r5, r6, pc}
 8000678:	f1c4 0400 	rsb	r4, r4, #0
 800067c:	3c20      	subs	r4, #32
 800067e:	da35      	bge.n	80006ec <__aeabi_dmul+0x164>
 8000680:	340c      	adds	r4, #12
 8000682:	dc1b      	bgt.n	80006bc <__aeabi_dmul+0x134>
 8000684:	f104 0414 	add.w	r4, r4, #20
 8000688:	f1c4 0520 	rsb	r5, r4, #32
 800068c:	fa00 f305 	lsl.w	r3, r0, r5
 8000690:	fa20 f004 	lsr.w	r0, r0, r4
 8000694:	fa01 f205 	lsl.w	r2, r1, r5
 8000698:	ea40 0002 	orr.w	r0, r0, r2
 800069c:	f001 4200 	and.w	r2, r1, #2147483648	@ 0x80000000
 80006a0:	f021 4100 	bic.w	r1, r1, #2147483648	@ 0x80000000
 80006a4:	eb10 70d3 	adds.w	r0, r0, r3, lsr #31
 80006a8:	fa21 f604 	lsr.w	r6, r1, r4
 80006ac:	eb42 0106 	adc.w	r1, r2, r6
 80006b0:	ea5e 0e43 	orrs.w	lr, lr, r3, lsl #1
 80006b4:	bf08      	it	eq
 80006b6:	ea20 70d3 	biceq.w	r0, r0, r3, lsr #31
 80006ba:	bd70      	pop	{r4, r5, r6, pc}
 80006bc:	f1c4 040c 	rsb	r4, r4, #12
 80006c0:	f1c4 0520 	rsb	r5, r4, #32
 80006c4:	fa00 f304 	lsl.w	r3, r0, r4
 80006c8:	fa20 f005 	lsr.w	r0, r0, r5
 80006cc:	fa01 f204 	lsl.w	r2, r1, r4
 80006d0:	ea40 0002 	orr.w	r0, r0, r2
 80006d4:	f001 4100 	and.w	r1, r1, #2147483648	@ 0x80000000
 80006d8:	eb10 70d3 	adds.w	r0, r0, r3, lsr #31
 80006dc:	f141 0100 	adc.w	r1, r1, #0
 80006e0:	ea5e 0e43 	orrs.w	lr, lr, r3, lsl #1
 80006e4:	bf08      	it	eq
 80006e6:	ea20 70d3 	biceq.w	r0, r0, r3, lsr #31
 80006ea:	bd70      	pop	{r4, r5, r6, pc}
 80006ec:	f1c4 0520 	rsb	r5, r4, #32
 80006f0:	fa00 f205 	lsl.w	r2, r0, r5
 80006f4:	ea4e 0e02 	orr.w	lr, lr, r2
 80006f8:	fa20 f304 	lsr.w	r3, r0, r4
 80006fc:	fa01 f205 	lsl.w	r2, r1, r5
 8000700:	ea43 0302 	orr.w	r3, r3, r2
 8000704:	fa21 f004 	lsr.w	r0, r1, r4
 8000708:	f001 4100 	and.w	r1, r1, #2147483648	@ 0x80000000
 800070c:	fa21 f204 	lsr.w	r2, r1, r4
 8000710:	ea20 0002 	bic.w	r0, r0, r2
 8000714:	eb00 70d3 	add.w	r0, r0, r3, lsr #31
 8000718:	ea5e 0e43 	orrs.w	lr, lr, r3, lsl #1
 800071c:	bf08      	it	eq
 800071e:	ea20 70d3 	biceq.w	r0, r0, r3, lsr #31
 8000722:	bd70      	pop	{r4, r5, r6, pc}
 8000724:	f094 0f00 	teq	r4, #0
 8000728:	d10f      	bne.n	800074a <__aeabi_dmul+0x1c2>
 800072a:	f001 4600 	and.w	r6, r1, #2147483648	@ 0x80000000
 800072e:	0040      	lsls	r0, r0, #1
 8000730:	eb41 0101 	adc.w	r1, r1, r1
 8000734:	f411 1f80 	tst.w	r1, #1048576	@ 0x100000
 8000738:	bf08      	it	eq
 800073a:	3c01      	subeq	r4, #1
 800073c:	d0f7      	beq.n	800072e <__aeabi_dmul+0x1a6>
 800073e:	ea41 0106 	orr.w	r1, r1, r6
 8000742:	f095 0f00 	teq	r5, #0
 8000746:	bf18      	it	ne
 8000748:	4770      	bxne	lr
 800074a:	f003 4600 	and.w	r6, r3, #2147483648	@ 0x80000000
 800074e:	0052      	lsls	r2, r2, #1
 8000750:	eb43 0303 	adc.w	r3, r3, r3
 8000754:	f413 1f80 	tst.w	r3, #1048576	@ 0x100000
 8000758:	bf08      	it	eq
 800075a:	3d01      	subeq	r5, #1
 800075c:	d0f7      	beq.n	800074e <__aeabi_dmul+0x1c6>
 800075e:	ea43 0306 	orr.w	r3, r3, r6
 8000762:	4770      	bx	lr
 8000764:	ea94 0f0c 	teq	r4, ip
 8000768:	ea0c 5513 	and.w	r5, ip, r3, lsr #20
 800076c:	bf18      	it	ne
 800076e:	ea95 0f0c 	teqne	r5, ip
 8000772:	d00c      	beq.n	800078e <__aeabi_dmul+0x206>
 8000774:	ea50 0641 	orrs.w	r6, r0, r1, lsl #1
 8000778:	bf18      	it	ne
 800077a:	ea52 0643 	orrsne.w	r6, r2, r3, lsl #1
 800077e:	d1d1      	bne.n	8000724 <__aeabi_dmul+0x19c>
 8000780:	ea81 0103 	eor.w	r1, r1, r3
 8000784:	f001 4100 	and.w	r1, r1, #2147483648	@ 0x80000000
 8000788:	f04f 0000 	mov.w	r0, #0
 800078c:	bd70      	pop	{r4, r5, r6, pc}
 800078e:	ea50 0641 	orrs.w	r6, r0, r1, lsl #1
 8000792:	bf06      	itte	eq
 8000794:	4610      	moveq	r0, r2
 8000796:	4619      	moveq	r1, r3
 8000798:	ea52 0643 	orrsne.w	r6, r2, r3, lsl #1
 800079c:	d019      	beq.n	80007d2 <__aeabi_dmul+0x24a>
 800079e:	ea94 0f0c 	teq	r4, ip
 80007a2:	d102      	bne.n	80007aa <__aeabi_dmul+0x222>
 80007a4:	ea50 3601 	orrs.w	r6, r0, r1, lsl #12
 80007a8:	d113      	bne.n	80007d2 <__aeabi_dmul+0x24a>
 80007aa:	ea95 0f0c 	teq	r5, ip
 80007ae:	d105      	bne.n	80007bc <__aeabi_dmul+0x234>
 80007b0:	ea52 3603 	orrs.w	r6, r2, r3, lsl #12
 80007b4:	bf1c      	itt	ne
 80007b6:	4610      	movne	r0, r2
 80007b8:	4619      	movne	r1, r3
 80007ba:	d10a      	bne.n	80007d2 <__aeabi_dmul+0x24a>
 80007bc:	ea81 0103 	eor.w	r1, r1, r3
 80007c0:	f001 4100 	and.w	r1, r1, #2147483648	@ 0x80000000
 80007c4:	f041 41fe 	orr.w	r1, r1, #2130706432	@ 0x7f000000
 80007c8:	f441 0170 	orr.w	r1, r1, #15728640	@ 0xf00000
 80007cc:	f04f 0000 	mov.w	r0, #0
 80007d0:	bd70      	pop	{r4, r5, r6, pc}
 80007d2:	f041 41fe 	orr.w	r1, r1, #2130706432	@ 0x7f000000
 80007d6:	f441 0178 	orr.w	r1, r1, #16252928	@ 0xf80000
 80007da:	bd70      	pop	{r4, r5, r6, pc}

080007dc <__aeabi_ddiv>:
 80007dc:	b570      	push	{r4, r5, r6, lr}
 80007de:	f04f 0cff 	mov.w	ip, #255	@ 0xff
 80007e2:	f44c 6ce0 	orr.w	ip, ip, #1792	@ 0x700
 80007e6:	ea1c 5411 	ands.w	r4, ip, r1, lsr #20
 80007ea:	bf1d      	ittte	ne
 80007ec:	ea1c 5513 	andsne.w	r5, ip, r3, lsr #20
 80007f0:	ea94 0f0c 	teqne	r4, ip
 80007f4:	ea95 0f0c 	teqne	r5, ip
 80007f8:	f000 f8a7 	bleq	800094a <__aeabi_ddiv+0x16e>
 80007fc:	eba4 0405 	sub.w	r4, r4, r5
 8000800:	ea81 0e03 	eor.w	lr, r1, r3
 8000804:	ea52 3503 	orrs.w	r5, r2, r3, lsl #12
 8000808:	ea4f 3101 	mov.w	r1, r1, lsl #12
 800080c:	f000 8088 	beq.w	8000920 <__aeabi_ddiv+0x144>
 8000810:	ea4f 3303 	mov.w	r3, r3, lsl #12
 8000814:	f04f 5580 	mov.w	r5, #268435456	@ 0x10000000
 8000818:	ea45 1313 	orr.w	r3, r5, r3, lsr #4
 800081c:	ea43 6312 	orr.w	r3, r3, r2, lsr #24
 8000820:	ea4f 2202 	mov.w	r2, r2, lsl #8
 8000824:	ea45 1511 	orr.w	r5, r5, r1, lsr #4
 8000828:	ea45 6510 	orr.w	r5, r5, r0, lsr #24
 800082c:	ea4f 2600 	mov.w	r6, r0, lsl #8
 8000830:	f00e 4100 	and.w	r1, lr, #2147483648	@ 0x80000000
 8000834:	429d      	cmp	r5, r3
 8000836:	bf08      	it	eq
 8000838:	4296      	cmpeq	r6, r2
 800083a:	f144 04fd 	adc.w	r4, r4, #253	@ 0xfd
 800083e:	f504 7440 	add.w	r4, r4, #768	@ 0x300
 8000842:	d202      	bcs.n	800084a <__aeabi_ddiv+0x6e>
 8000844:	085b      	lsrs	r3, r3, #1
 8000846:	ea4f 0232 	mov.w	r2, r2, rrx
 800084a:	1ab6      	subs	r6, r6, r2
 800084c:	eb65 0503 	sbc.w	r5, r5, r3
 8000850:	085b      	lsrs	r3, r3, #1
 8000852:	ea4f 0232 	mov.w	r2, r2, rrx
 8000856:	f44f 1080 	mov.w	r0, #1048576	@ 0x100000
 800085a:	f44f 2c00 	mov.w	ip, #524288	@ 0x80000
 800085e:	ebb6 0e02 	subs.w	lr, r6, r2
 8000862:	eb75 0e03 	sbcs.w	lr, r5, r3
 8000866:	bf22      	ittt	cs
 8000868:	1ab6      	subcs	r6, r6, r2
 800086a:	4675      	movcs	r5, lr
 800086c:	ea40 000c 	orrcs.w	r0, r0, ip
 8000870:	085b      	lsrs	r3, r3, #1
 8000872:	ea4f 0232 	mov.w	r2, r2, rrx
 8000876:	ebb6 0e02 	subs.w	lr, r6, r2
 800087a:	eb75 0e03 	sbcs.w	lr, r5, r3
 800087e:	bf22      	ittt	cs
 8000880:	1ab6      	subcs	r6, r6, r2
 8000882:	4675      	movcs	r5, lr
 8000884:	ea40 005c 	orrcs.w	r0, r0, ip, lsr #1
 8000888:	085b      	lsrs	r3, r3, #1
 800088a:	ea4f 0232 	mov.w	r2, r2, rrx
 800088e:	ebb6 0e02 	subs.w	lr, r6, r2
 8000892:	eb75 0e03 	sbcs.w	lr, r5, r3
 8000896:	bf22      	ittt	cs
 8000898:	1ab6      	subcs	r6, r6, r2
 800089a:	4675      	movcs	r5, lr
 800089c:	ea40 009c 	orrcs.w	r0, r0, ip, lsr #2
 80008a0:	085b      	lsrs	r3, r3, #1
 80008a2:	ea4f 0232 	mov.w	r2, r2, rrx
 80008a6:	ebb6 0e02 	subs.w	lr, r6, r2
 80008aa:	eb75 0e03 	sbcs.w	lr, r5, r3
 80008ae:	bf22      	ittt	cs
 80008b0:	1ab6      	subcs	r6, r6, r2
 80008b2:	4675      	movcs	r5, lr
 80008b4:	ea40 00dc 	orrcs.w	r0, r0, ip, lsr #3
 80008b8:	ea55 0e06 	orrs.w	lr, r5, r6
 80008bc:	d018      	beq.n	80008f0 <__aeabi_ddiv+0x114>
 80008be:	ea4f 1505 	mov.w	r5, r5, lsl #4
 80008c2:	ea45 7516 	orr.w	r5, r5, r6, lsr #28
 80008c6:	ea4f 1606 	mov.w	r6, r6, lsl #4
 80008ca:	ea4f 03c3 	mov.w	r3, r3, lsl #3
 80008ce:	ea43 7352 	orr.w	r3, r3, r2, lsr #29
 80008d2:	ea4f 02c2 	mov.w	r2, r2, lsl #3
 80008d6:	ea5f 1c1c 	movs.w	ip, ip, lsr #4
 80008da:	d1c0      	bne.n	800085e <__aeabi_ddiv+0x82>
 80008dc:	f411 1f80 	tst.w	r1, #1048576	@ 0x100000
 80008e0:	d10b      	bne.n	80008fa <__aeabi_ddiv+0x11e>
 80008e2:	ea41 0100 	orr.w	r1, r1, r0
 80008e6:	f04f 0000 	mov.w	r0, #0
 80008ea:	f04f 4c00 	mov.w	ip, #2147483648	@ 0x80000000
 80008ee:	e7b6      	b.n	800085e <__aeabi_ddiv+0x82>
 80008f0:	f411 1f80 	tst.w	r1, #1048576	@ 0x100000
 80008f4:	bf04      	itt	eq
 80008f6:	4301      	orreq	r1, r0
 80008f8:	2000      	moveq	r0, #0
 80008fa:	f1b4 0cfd 	subs.w	ip, r4, #253	@ 0xfd
 80008fe:	bf88      	it	hi
 8000900:	f5bc 6fe0 	cmphi.w	ip, #1792	@ 0x700
 8000904:	f63f aeaf 	bhi.w	8000666 <__aeabi_dmul+0xde>
 8000908:	ebb5 0c03 	subs.w	ip, r5, r3
 800090c:	bf04      	itt	eq
 800090e:	ebb6 0c02 	subseq.w	ip, r6, r2
 8000912:	ea5f 0c50 	movseq.w	ip, r0, lsr #1
 8000916:	f150 0000 	adcs.w	r0, r0, #0
 800091a:	eb41 5104 	adc.w	r1, r1, r4, lsl #20
 800091e:	bd70      	pop	{r4, r5, r6, pc}
 8000920:	f00e 4e00 	and.w	lr, lr, #2147483648	@ 0x80000000
 8000924:	ea4e 3111 	orr.w	r1, lr, r1, lsr #12
 8000928:	eb14 045c 	adds.w	r4, r4, ip, lsr #1
 800092c:	bfc2      	ittt	gt
 800092e:	ebd4 050c 	rsbsgt	r5, r4, ip
 8000932:	ea41 5104 	orrgt.w	r1, r1, r4, lsl #20
 8000936:	bd70      	popgt	{r4, r5, r6, pc}
 8000938:	f441 1180 	orr.w	r1, r1, #1048576	@ 0x100000
 800093c:	f04f 0e00 	mov.w	lr, #0
 8000940:	3c01      	subs	r4, #1
 8000942:	e690      	b.n	8000666 <__aeabi_dmul+0xde>
 8000944:	ea45 0e06 	orr.w	lr, r5, r6
 8000948:	e68d      	b.n	8000666 <__aeabi_dmul+0xde>
 800094a:	ea0c 5513 	and.w	r5, ip, r3, lsr #20
 800094e:	ea94 0f0c 	teq	r4, ip
 8000952:	bf08      	it	eq
 8000954:	ea95 0f0c 	teqeq	r5, ip
 8000958:	f43f af3b 	beq.w	80007d2 <__aeabi_dmul+0x24a>
 800095c:	ea94 0f0c 	teq	r4, ip
 8000960:	d10a      	bne.n	8000978 <__aeabi_ddiv+0x19c>
 8000962:	ea50 3401 	orrs.w	r4, r0, r1, lsl #12
 8000966:	f47f af34 	bne.w	80007d2 <__aeabi_dmul+0x24a>
 800096a:	ea95 0f0c 	teq	r5, ip
 800096e:	f47f af25 	bne.w	80007bc <__aeabi_dmul+0x234>
 8000972:	4610      	mov	r0, r2
 8000974:	4619      	mov	r1, r3
 8000976:	e72c      	b.n	80007d2 <__aeabi_dmul+0x24a>
 8000978:	ea95 0f0c 	teq	r5, ip
 800097c:	d106      	bne.n	800098c <__aeabi_ddiv+0x1b0>
 800097e:	ea52 3503 	orrs.w	r5, r2, r3, lsl #12
 8000982:	f43f aefd 	beq.w	8000780 <__aeabi_dmul+0x1f8>
 8000986:	4610      	mov	r0, r2
 8000988:	4619      	mov	r1, r3
 800098a:	e722      	b.n	80007d2 <__aeabi_dmul+0x24a>
 800098c:	ea50 0641 	orrs.w	r6, r0, r1, lsl #1
 8000990:	bf18      	it	ne
 8000992:	ea52 0643 	orrsne.w	r6, r2, r3, lsl #1
 8000996:	f47f aec5 	bne.w	8000724 <__aeabi_dmul+0x19c>
 800099a:	ea50 0441 	orrs.w	r4, r0, r1, lsl #1
 800099e:	f47f af0d 	bne.w	80007bc <__aeabi_dmul+0x234>
 80009a2:	ea52 0543 	orrs.w	r5, r2, r3, lsl #1
 80009a6:	f47f aeeb 	bne.w	8000780 <__aeabi_dmul+0x1f8>
 80009aa:	e712      	b.n	80007d2 <__aeabi_dmul+0x24a>

080009ac <__gedf2>:
 80009ac:	f04f 3cff 	mov.w	ip, #4294967295
 80009b0:	e006      	b.n	80009c0 <__cmpdf2+0x4>
 80009b2:	bf00      	nop

080009b4 <__ledf2>:
 80009b4:	f04f 0c01 	mov.w	ip, #1
 80009b8:	e002      	b.n	80009c0 <__cmpdf2+0x4>
 80009ba:	bf00      	nop

080009bc <__cmpdf2>:
 80009bc:	f04f 0c01 	mov.w	ip, #1
 80009c0:	f84d cd04 	str.w	ip, [sp, #-4]!
 80009c4:	ea4f 0c41 	mov.w	ip, r1, lsl #1
 80009c8:	ea7f 5c6c 	mvns.w	ip, ip, asr #21
 80009cc:	ea4f 0c43 	mov.w	ip, r3, lsl #1
 80009d0:	bf18      	it	ne
 80009d2:	ea7f 5c6c 	mvnsne.w	ip, ip, asr #21
 80009d6:	d01b      	beq.n	8000a10 <__cmpdf2+0x54>
 80009d8:	b001      	add	sp, #4
 80009da:	ea50 0c41 	orrs.w	ip, r0, r1, lsl #1
 80009de:	bf0c      	ite	eq
 80009e0:	ea52 0c43 	orrseq.w	ip, r2, r3, lsl #1
 80009e4:	ea91 0f03 	teqne	r1, r3
 80009e8:	bf02      	ittt	eq
 80009ea:	ea90 0f02 	teqeq	r0, r2
 80009ee:	2000      	moveq	r0, #0
 80009f0:	4770      	bxeq	lr
 80009f2:	f110 0f00 	cmn.w	r0, #0
 80009f6:	ea91 0f03 	teq	r1, r3
 80009fa:	bf58      	it	pl
 80009fc:	4299      	cmppl	r1, r3
 80009fe:	bf08      	it	eq
 8000a00:	4290      	cmpeq	r0, r2
 8000a02:	bf2c      	ite	cs
 8000a04:	17d8      	asrcs	r0, r3, #31
 8000a06:	ea6f 70e3 	mvncc.w	r0, r3, asr #31
 8000a0a:	f040 0001 	orr.w	r0, r0, #1
 8000a0e:	4770      	bx	lr
 8000a10:	ea4f 0c41 	mov.w	ip, r1, lsl #1
 8000a14:	ea7f 5c6c 	mvns.w	ip, ip, asr #21
 8000a18:	d102      	bne.n	8000a20 <__cmpdf2+0x64>
 8000a1a:	ea50 3c01 	orrs.w	ip, r0, r1, lsl #12
 8000a1e:	d107      	bne.n	8000a30 <__cmpdf2+0x74>
 8000a20:	ea4f 0c43 	mov.w	ip, r3, lsl #1
 8000a24:	ea7f 5c6c 	mvns.w	ip, ip, asr #21
 8000a28:	d1d6      	bne.n	80009d8 <__cmpdf2+0x1c>
 8000a2a:	ea52 3c03 	orrs.w	ip, r2, r3, lsl #12
 8000a2e:	d0d3      	beq.n	80009d8 <__cmpdf2+0x1c>
 8000a30:	f85d 0b04 	ldr.w	r0, [sp], #4
 8000a34:	4770      	bx	lr
 8000a36:	bf00      	nop

08000a38 <__aeabi_cdrcmple>:
 8000a38:	4684      	mov	ip, r0
 8000a3a:	4610      	mov	r0, r2
 8000a3c:	4662      	mov	r2, ip
 8000a3e:	468c      	mov	ip, r1
 8000a40:	4619      	mov	r1, r3
 8000a42:	4663      	mov	r3, ip
 8000a44:	e000      	b.n	8000a48 <__aeabi_cdcmpeq>
 8000a46:	bf00      	nop

08000a48 <__aeabi_cdcmpeq>:
 8000a48:	b501      	push	{r0, lr}
 8000a4a:	f7ff ffb7 	bl	80009bc <__cmpdf2>
 8000a4e:	2800      	cmp	r0, #0
 8000a50:	bf48      	it	mi
 8000a52:	f110 0f00 	cmnmi.w	r0, #0
 8000a56:	bd01      	pop	{r0, pc}

08000a58 <__aeabi_dcmpeq>:
 8000a58:	f84d ed08 	str.w	lr, [sp, #-8]!
 8000a5c:	f7ff fff4 	bl	8000a48 <__aeabi_cdcmpeq>
 8000a60:	bf0c      	ite	eq
 8000a62:	2001      	moveq	r0, #1
 8000a64:	2000      	movne	r0, #0
 8000a66:	f85d fb08 	ldr.w	pc, [sp], #8
 8000a6a:	bf00      	nop

08000a6c <__aeabi_dcmplt>:
 8000a6c:	f84d ed08 	str.w	lr, [sp, #-8]!
 8000a70:	f7ff ffea 	bl	8000a48 <__aeabi_cdcmpeq>
 8000a74:	bf34      	ite	cc
 8000a76:	2001      	movcc	r0, #1
 8000a78:	2000      	movcs	r0, #0
 8000a7a:	f85d fb08 	ldr.w	pc, [sp], #8
 8000a7e:	bf00      	nop

08000a80 <__aeabi_dcmple>:
 8000a80:	f84d ed08 	str.w	lr, [sp, #-8]!
 8000a84:	f7ff ffe0 	bl	8000a48 <__aeabi_cdcmpeq>
 8000a88:	bf94      	ite	ls
 8000a8a:	2001      	movls	r0, #1
 8000a8c:	2000      	movhi	r0, #0
 8000a8e:	f85d fb08 	ldr.w	pc, [sp], #8
 8000a92:	bf00      	nop

08000a94 <__aeabi_dcmpge>:
 8000a94:	f84d ed08 	str.w	lr, [sp, #-8]!
 8000a98:	f7ff ffce 	bl	8000a38 <__aeabi_cdrcmple>
 8000a9c:	bf94      	ite	ls
 8000a9e:	2001      	movls	r0, #1
 8000aa0:	2000      	movhi	r0, #0
 8000aa2:	f85d fb08 	ldr.w	pc, [sp], #8
 8000aa6:	bf00      	nop

08000aa8 <__aeabi_dcmpgt>:
 8000aa8:	f84d ed08 	str.w	lr, [sp, #-8]!
 8000aac:	f7ff ffc4 	bl	8000a38 <__aeabi_cdrcmple>
 8000ab0:	bf34      	ite	cc
 8000ab2:	2001      	movcc	r0, #1
 8000ab4:	2000      	movcs	r0, #0
 8000ab6:	f85d fb08 	ldr.w	pc, [sp], #8
 8000aba:	bf00      	nop

08000abc <__aeabi_dcmpun>:
 8000abc:	ea4f 0c41 	mov.w	ip, r1, lsl #1
 8000ac0:	ea7f 5c6c 	mvns.w	ip, ip, asr #21
 8000ac4:	d102      	bne.n	8000acc <__aeabi_dcmpun+0x10>
 8000ac6:	ea50 3c01 	orrs.w	ip, r0, r1, lsl #12
 8000aca:	d10a      	bne.n	8000ae2 <__aeabi_dcmpun+0x26>
 8000acc:	ea4f 0c43 	mov.w	ip, r3, lsl #1
 8000ad0:	ea7f 5c6c 	mvns.w	ip, ip, asr #21
 8000ad4:	d102      	bne.n	8000adc <__aeabi_dcmpun+0x20>
 8000ad6:	ea52 3c03 	orrs.w	ip, r2, r3, lsl #12
 8000ada:	d102      	bne.n	8000ae2 <__aeabi_dcmpun+0x26>
 8000adc:	f04f 0000 	mov.w	r0, #0
 8000ae0:	4770      	bx	lr
 8000ae2:	f04f 0001 	mov.w	r0, #1
 8000ae6:	4770      	bx	lr

08000ae8 <__aeabi_d2uiz>:
 8000ae8:	004a      	lsls	r2, r1, #1
 8000aea:	d211      	bcs.n	8000b10 <__aeabi_d2uiz+0x28>
 8000aec:	f512 1200 	adds.w	r2, r2, #2097152	@ 0x200000
 8000af0:	d211      	bcs.n	8000b16 <__aeabi_d2uiz+0x2e>
 8000af2:	d50d      	bpl.n	8000b10 <__aeabi_d2uiz+0x28>
 8000af4:	f46f 7378 	mvn.w	r3, #992	@ 0x3e0
 8000af8:	ebb3 5262 	subs.w	r2, r3, r2, asr #21
 8000afc:	d40e      	bmi.n	8000b1c <__aeabi_d2uiz+0x34>
 8000afe:	ea4f 23c1 	mov.w	r3, r1, lsl #11
 8000b02:	f043 4300 	orr.w	r3, r3, #2147483648	@ 0x80000000
 8000b06:	ea43 5350 	orr.w	r3, r3, r0, lsr #21
 8000b0a:	fa23 f002 	lsr.w	r0, r3, r2
 8000b0e:	4770      	bx	lr
 8000b10:	f04f 0000 	mov.w	r0, #0
 8000b14:	4770      	bx	lr
 8000b16:	ea50 3001 	orrs.w	r0, r0, r1, lsl #12
 8000b1a:	d102      	bne.n	8000b22 <__aeabi_d2uiz+0x3a>
 8000b1c:	f04f 30ff 	mov.w	r0, #4294967295
 8000b20:	4770      	bx	lr
 8000b22:	f04f 0000 	mov.w	r0, #0
 8000b26:	4770      	bx	lr

08000b28 <adc_init>:
uint16_t adcIDC2 = 0;

int16_t adcGain[ADC1_CHANNEL_COUNT];

void adc_init(void)
{
 8000b28:	b082      	sub	sp, #8
	adcGain[listVAC]   = 9100;
 8000b2a:	f240 0384 	movw	r3, #132	@ 0x84
 8000b2e:	f2c2 0300 	movt	r3, #8192	@ 0x2000
 8000b32:	f242 328c 	movw	r2, #9100	@ 0x238c
 8000b36:	801a      	strh	r2, [r3, #0]
	adcGain[listTEMP]  = 100;
 8000b38:	2264      	movs	r2, #100	@ 0x64
 8000b3a:	805a      	strh	r2, [r3, #2]
	adcGain[listIDC]   = 2500;
 8000b3c:	f640 12c4 	movw	r2, #2500	@ 0x9c4
 8000b40:	809a      	strh	r2, [r3, #4]
	adcGain[listVBAT1] = 2490;
 8000b42:	f640 11ba 	movw	r1, #2490	@ 0x9ba
 8000b46:	80d9      	strh	r1, [r3, #6]
	adcGain[listVDC1]  = Q15(1);
 8000b48:	f647 71ff 	movw	r1, #32767	@ 0x7fff
 8000b4c:	8119      	strh	r1, [r3, #8]
	adcGain[listVDC2]  = Q15(1);
 8000b4e:	8159      	strh	r1, [r3, #10]
	adcGain[listIDC2]  = 2500;
 8000b50:	819a      	strh	r2, [r3, #12]
  *         @arg @ref LL_DMA_CHANNEL_7
  * @retval None
  */
__STATIC_INLINE void LL_DMA_DisableChannel(DMA_TypeDef *DMAx, uint32_t Channel)
{
  CLEAR_BIT(((DMA_Channel_TypeDef *)((uint32_t)((uint32_t)DMAx + CHANNEL_OFFSET_TAB[Channel - 1U])))->CCR, DMA_CCR_EN);
 8000b52:	2300      	movs	r3, #0
 8000b54:	f2c4 0302 	movt	r3, #16386	@ 0x4002
 8000b58:	689a      	ldr	r2, [r3, #8]
 8000b5a:	f022 0201 	bic.w	r2, r2, #1
 8000b5e:	609a      	str	r2, [r3, #8]
  * @param  PeriphAddress Between Min_Data = 0 and Max_Data = 0xFFFFFFFF
  * @retval None
  */
__STATIC_INLINE void LL_DMA_SetPeriphAddress(DMA_TypeDef *DMAx, uint32_t Channel, uint32_t PeriphAddress)
{
  WRITE_REG(((DMA_Channel_TypeDef *)((uint32_t)((uint32_t)DMAx + CHANNEL_OFFSET_TAB[Channel - 1U])))->CPAR, PeriphAddress);
 8000b60:	f242 424c 	movw	r2, #9292	@ 0x244c
 8000b64:	f2c4 0201 	movt	r2, #16385	@ 0x4001
 8000b68:	611a      	str	r2, [r3, #16]

    LL_DMA_DisableChannel(DMA1, LL_DMA_CHANNEL_1);
    LL_DMA_SetPeriphAddress(DMA1, LL_DMA_CHANNEL_1,
    LL_ADC_DMA_GetRegAddr(ADC1, LL_ADC_DMA_REG_REGULAR_DATA));
    LL_DMA_SetMemoryAddress(DMA1, LL_DMA_CHANNEL_1, (uint32_t)adc1Buffer);
 8000b6a:	f240 220c 	movw	r2, #524	@ 0x20c
 8000b6e:	f2c2 0200 	movt	r2, #8192	@ 0x2000
  WRITE_REG(((DMA_Channel_TypeDef *)((uint32_t)((uint32_t)DMAx + CHANNEL_OFFSET_TAB[Channel - 1U])))->CMAR, MemoryAddress);
 8000b72:	615a      	str	r2, [r3, #20]
  MODIFY_REG(((DMA_Channel_TypeDef *)((uint32_t)((uint32_t)DMAx + CHANNEL_OFFSET_TAB[Channel - 1U])))->CNDTR,
 8000b74:	68da      	ldr	r2, [r3, #12]
 8000b76:	f36f 020f 	bfc	r2, #0, #16
 8000b7a:	f042 0207 	orr.w	r2, r2, #7
 8000b7e:	60da      	str	r2, [r3, #12]
  MODIFY_REG(((DMA_Channel_TypeDef *)((uint32_t)((uint32_t)DMAx + CHANNEL_OFFSET_TAB[Channel - 1U])))->CCR, DMA_CCR_PINC,
 8000b80:	689a      	ldr	r2, [r3, #8]
 8000b82:	f022 0240 	bic.w	r2, r2, #64	@ 0x40
 8000b86:	609a      	str	r2, [r3, #8]
  MODIFY_REG(((DMA_Channel_TypeDef *)((uint32_t)((uint32_t)DMAx + CHANNEL_OFFSET_TAB[Channel - 1U])))->CCR, DMA_CCR_MINC,
 8000b88:	689a      	ldr	r2, [r3, #8]
 8000b8a:	f042 0280 	orr.w	r2, r2, #128	@ 0x80
 8000b8e:	609a      	str	r2, [r3, #8]
  MODIFY_REG(((DMA_Channel_TypeDef *)((uint32_t)((uint32_t)DMAx + CHANNEL_OFFSET_TAB[Channel - 1U])))->CCR, DMA_CCR_PSIZE,
 8000b90:	689a      	ldr	r2, [r3, #8]
 8000b92:	f422 7240 	bic.w	r2, r2, #768	@ 0x300
 8000b96:	f442 7280 	orr.w	r2, r2, #256	@ 0x100
 8000b9a:	609a      	str	r2, [r3, #8]
  MODIFY_REG(((DMA_Channel_TypeDef *)((uint32_t)((uint32_t)DMAx + CHANNEL_OFFSET_TAB[Channel - 1U])))->CCR, DMA_CCR_MSIZE,
 8000b9c:	689a      	ldr	r2, [r3, #8]
 8000b9e:	f422 6240 	bic.w	r2, r2, #3072	@ 0xc00
 8000ba2:	f442 6280 	orr.w	r2, r2, #1024	@ 0x400
 8000ba6:	609a      	str	r2, [r3, #8]
  MODIFY_REG(((DMA_Channel_TypeDef *)((uint32_t)((uint32_t)DMAx + CHANNEL_OFFSET_TAB[Channel - 1U])))->CCR, DMA_CCR_CIRC,
 8000ba8:	689a      	ldr	r2, [r3, #8]
 8000baa:	f042 0220 	orr.w	r2, r2, #32
 8000bae:	609a      	str	r2, [r3, #8]
  MODIFY_REG(((DMA_Channel_TypeDef *)((uint32_t)((uint32_t)DMAx + CHANNEL_OFFSET_TAB[Channel - 1U])))->CCR,
 8000bb0:	689a      	ldr	r2, [r3, #8]
 8000bb2:	f422 4280 	bic.w	r2, r2, #16384	@ 0x4000
 8000bb6:	f022 0210 	bic.w	r2, r2, #16
 8000bba:	609a      	str	r2, [r3, #8]
  *         @arg @ref LL_DMA_CHANNEL_7
  * @retval None
  */
__STATIC_INLINE void LL_DMA_EnableIT_TC(DMA_TypeDef *DMAx, uint32_t Channel)
{
  SET_BIT(((DMA_Channel_TypeDef *)((uint32_t)((uint32_t)DMAx + CHANNEL_OFFSET_TAB[Channel - 1U])))->CCR, DMA_CCR_TCIE);
 8000bbc:	689a      	ldr	r2, [r3, #8]
 8000bbe:	f042 0202 	orr.w	r2, r2, #2
 8000bc2:	609a      	str	r2, [r3, #8]
  SET_BIT(((DMA_Channel_TypeDef *)((uint32_t)((uint32_t)DMAx + CHANNEL_OFFSET_TAB[Channel - 1U])))->CCR, DMA_CCR_EN);
 8000bc4:	689a      	ldr	r2, [r3, #8]
 8000bc6:	f042 0201 	orr.w	r2, r2, #1
 8000bca:	609a      	str	r2, [r3, #8]
  * @param  ADCx ADC instance
  * @retval None
  */
__STATIC_INLINE void LL_ADC_Enable(ADC_TypeDef *ADCx)
{
  SET_BIT(ADCx->CR2, ADC_CR2_ADON);
 8000bcc:	f44f 5310 	mov.w	r3, #9216	@ 0x2400
 8000bd0:	f2c4 0301 	movt	r3, #16385	@ 0x4001
 8000bd4:	689a      	ldr	r2, [r3, #8]
 8000bd6:	f042 0201 	orr.w	r2, r2, #1
 8000bda:	609a      	str	r2, [r3, #8]
    LL_DMA_SetDataTransferDirection(DMA1, LL_DMA_CHANNEL_1, LL_DMA_DIRECTION_PERIPH_TO_MEMORY);
    LL_DMA_EnableIT_TC(DMA1, LL_DMA_CHANNEL_1); // opsiyonel: NVIC enable da yap
    LL_DMA_EnableChannel(DMA1, LL_DMA_CHANNEL_1);

    LL_ADC_Enable(ADC1);
    for (volatile int i = 0; i < 1000; i++) { __asm volatile("nop"); } // kısa gecikme
 8000bdc:	2300      	movs	r3, #0
 8000bde:	9301      	str	r3, [sp, #4]
 8000be0:	9b01      	ldr	r3, [sp, #4]
 8000be2:	f5b3 7f7a 	cmp.w	r3, #1000	@ 0x3e8
 8000be6:	da07      	bge.n	8000bf8 <adc_init+0xd0>
 8000be8:	bf00      	nop
 8000bea:	9b01      	ldr	r3, [sp, #4]
 8000bec:	3301      	adds	r3, #1
 8000bee:	9301      	str	r3, [sp, #4]
 8000bf0:	9b01      	ldr	r3, [sp, #4]
 8000bf2:	f5b3 7f7a 	cmp.w	r3, #1000	@ 0x3e8
 8000bf6:	dbf7      	blt.n	8000be8 <adc_init+0xc0>
  * @param  ADCx ADC instance
  * @retval None
  */
__STATIC_INLINE void LL_ADC_REG_StartConversionSWStart(ADC_TypeDef *ADCx)
{
  SET_BIT(ADCx->CR2, (ADC_CR2_SWSTART | ADC_CR2_EXTTRIG));
 8000bf8:	f44f 5310 	mov.w	r3, #9216	@ 0x2400
 8000bfc:	f2c4 0301 	movt	r3, #16385	@ 0x4001
 8000c00:	689a      	ldr	r2, [r3, #8]
 8000c02:	f442 02a0 	orr.w	r2, r2, #5242880	@ 0x500000
 8000c06:	609a      	str	r2, [r3, #8]

    LL_ADC_REG_StartConversionSWStart(ADC1);
}
 8000c08:	b002      	add	sp, #8
 8000c0a:	4770      	bx	lr

08000c0c <lcd_delay_us>:
static void lcd_send(uint8_t value, uint8_t is_data);

/* Minimal microsecond delay using busy loop scaled for 24 MHz SYSCLK.
 * This is approximate; HD44780 is tolerant. For safety we overshoot. */
static void lcd_delay_us(uint16_t micros)
{
 8000c0c:	b530      	push	{r4, r5, lr}
 8000c0e:	b083      	sub	sp, #12
 8000c10:	4604      	mov	r4, r0
    if (micros >= 1000u) {
 8000c12:	f5b0 7f7a 	cmp.w	r0, #1000	@ 0x3e8
 8000c16:	d20f      	bcs.n	8000c38 <lcd_delay_us+0x2c>
        HAL_Delay(micros / 1000u);
        micros = (uint16_t)(micros % 1000u);
    }
    volatile uint32_t count = (uint32_t)micros * 40u; /* generous for 24 MHz */
 8000c18:	eb04 0484 	add.w	r4, r4, r4, lsl #2
 8000c1c:	00e4      	lsls	r4, r4, #3
 8000c1e:	9401      	str	r4, [sp, #4]
    while (count--) {
 8000c20:	9b01      	ldr	r3, [sp, #4]
 8000c22:	1e5a      	subs	r2, r3, #1
 8000c24:	9201      	str	r2, [sp, #4]
 8000c26:	b12b      	cbz	r3, 8000c34 <lcd_delay_us+0x28>
        __asm volatile ("nop");
 8000c28:	bf00      	nop
    while (count--) {
 8000c2a:	9b01      	ldr	r3, [sp, #4]
 8000c2c:	1e5a      	subs	r2, r3, #1
 8000c2e:	9201      	str	r2, [sp, #4]
 8000c30:	2b00      	cmp	r3, #0
 8000c32:	d1f9      	bne.n	8000c28 <lcd_delay_us+0x1c>
    }
}
 8000c34:	b003      	add	sp, #12
 8000c36:	bd30      	pop	{r4, r5, pc}
        HAL_Delay(micros / 1000u);
 8000c38:	f644 50d3 	movw	r0, #19923	@ 0x4dd3
 8000c3c:	f2c1 0062 	movt	r0, #4194	@ 0x1062
 8000c40:	fba0 3004 	umull	r3, r0, r0, r4
 8000c44:	0985      	lsrs	r5, r0, #6
 8000c46:	4628      	mov	r0, r5
 8000c48:	f001 fa31 	bl	80020ae <HAL_Delay>
        micros = (uint16_t)(micros % 1000u);
 8000c4c:	f44f 737a 	mov.w	r3, #1000	@ 0x3e8
 8000c50:	fb03 4415 	mls	r4, r3, r5, r4
 8000c54:	b2a4      	uxth	r4, r4
 8000c56:	e7df      	b.n	8000c18 <lcd_delay_us+0xc>

08000c58 <lcd_write4>:
    HAL_GPIO_WritePin(LCD_E_GPIO_Port, LCD_E_Pin, GPIO_PIN_RESET);
    lcd_delay_us(50); /* enable cycle time */
}

static void lcd_write4(uint8_t nibble)
{
 8000c58:	b538      	push	{r3, r4, r5, lr}
 8000c5a:	4604      	mov	r4, r0
    /* Map nibble bit0..bit3 to LCD_D0..LCD_D3 pins */
    HAL_GPIO_WritePin(LCD_D0_GPIO_Port, LCD_D0_Pin, (nibble & 0x01) ? GPIO_PIN_SET : GPIO_PIN_RESET);
 8000c5c:	f44f 6500 	mov.w	r5, #2048	@ 0x800
 8000c60:	f2c4 0501 	movt	r5, #16385	@ 0x4001
 8000c64:	f000 0201 	and.w	r2, r0, #1
 8000c68:	f44f 5180 	mov.w	r1, #4096	@ 0x1000
 8000c6c:	4628      	mov	r0, r5
 8000c6e:	f001 fc7d 	bl	800256c <HAL_GPIO_WritePin>
    HAL_GPIO_WritePin(LCD_D1_GPIO_Port, LCD_D1_Pin, (nibble & 0x02) ? GPIO_PIN_SET : GPIO_PIN_RESET);
 8000c72:	f3c4 0240 	ubfx	r2, r4, #1, #1
 8000c76:	f44f 6100 	mov.w	r1, #2048	@ 0x800
 8000c7a:	4628      	mov	r0, r5
 8000c7c:	f001 fc76 	bl	800256c <HAL_GPIO_WritePin>
    HAL_GPIO_WritePin(LCD_D2_GPIO_Port, LCD_D2_Pin, (nibble & 0x04) ? GPIO_PIN_SET : GPIO_PIN_RESET);
 8000c80:	f3c4 0280 	ubfx	r2, r4, #2, #1
 8000c84:	f44f 7100 	mov.w	r1, #512	@ 0x200
 8000c88:	4628      	mov	r0, r5
 8000c8a:	f001 fc6f 	bl	800256c <HAL_GPIO_WritePin>
    HAL_GPIO_WritePin(LCD_D3_GPIO_Port, LCD_D3_Pin, (nibble & 0x08) ? GPIO_PIN_SET : GPIO_PIN_RESET);
 8000c8e:	f3c4 02c0 	ubfx	r2, r4, #3, #1
 8000c92:	f44f 6180 	mov.w	r1, #1024	@ 0x400
 8000c96:	4628      	mov	r0, r5
 8000c98:	f001 fc68 	bl	800256c <HAL_GPIO_WritePin>
    HAL_GPIO_WritePin(LCD_E_GPIO_Port, LCD_E_Pin, GPIO_PIN_SET);
 8000c9c:	f44f 6440 	mov.w	r4, #3072	@ 0xc00
 8000ca0:	f2c4 0401 	movt	r4, #16385	@ 0x4001
 8000ca4:	2201      	movs	r2, #1
 8000ca6:	2110      	movs	r1, #16
 8000ca8:	4620      	mov	r0, r4
 8000caa:	f001 fc5f 	bl	800256c <HAL_GPIO_WritePin>
    lcd_delay_us(1);
 8000cae:	2001      	movs	r0, #1
 8000cb0:	f7ff ffac 	bl	8000c0c <lcd_delay_us>
    HAL_GPIO_WritePin(LCD_E_GPIO_Port, LCD_E_Pin, GPIO_PIN_RESET);
 8000cb4:	2200      	movs	r2, #0
 8000cb6:	2110      	movs	r1, #16
 8000cb8:	4620      	mov	r0, r4
 8000cba:	f001 fc57 	bl	800256c <HAL_GPIO_WritePin>
    lcd_delay_us(50); /* enable cycle time */
 8000cbe:	2032      	movs	r0, #50	@ 0x32
 8000cc0:	f7ff ffa4 	bl	8000c0c <lcd_delay_us>
    lcd_pulse_enable();
}
 8000cc4:	bd38      	pop	{r3, r4, r5, pc}

08000cc6 <lcd_send>:

static void lcd_send(uint8_t value, uint8_t is_data)
{
 8000cc6:	b510      	push	{r4, lr}
 8000cc8:	4604      	mov	r4, r0
    HAL_GPIO_WritePin(LCD_RS_GPIO_Port, LCD_RS_Pin, is_data ? GPIO_PIN_SET : GPIO_PIN_RESET);
 8000cca:	1e0a      	subs	r2, r1, #0
 8000ccc:	bf18      	it	ne
 8000cce:	2201      	movne	r2, #1
 8000cd0:	2108      	movs	r1, #8
 8000cd2:	f44f 6040 	mov.w	r0, #3072	@ 0xc00
 8000cd6:	f2c4 0001 	movt	r0, #16385	@ 0x4001
 8000cda:	f001 fc47 	bl	800256c <HAL_GPIO_WritePin>
    lcd_write4((uint8_t)(value >> 4));
 8000cde:	0920      	lsrs	r0, r4, #4
 8000ce0:	f7ff ffba 	bl	8000c58 <lcd_write4>
    lcd_write4((uint8_t)(value & 0x0F));
 8000ce4:	f004 000f 	and.w	r0, r4, #15
 8000ce8:	f7ff ffb6 	bl	8000c58 <lcd_write4>
}
 8000cec:	bd10      	pop	{r4, pc}

08000cee <LCD_Backlight>:

/* Public API */
void LCD_Backlight(uint8_t on)
{
 8000cee:	b508      	push	{r3, lr}
    HAL_GPIO_WritePin(LCD_BL_GPIO_Port, LCD_BL_Pin, on ? GPIO_PIN_SET : GPIO_PIN_RESET);
 8000cf0:	1e02      	subs	r2, r0, #0
 8000cf2:	bf18      	it	ne
 8000cf4:	2201      	movne	r2, #1
 8000cf6:	f44f 4100 	mov.w	r1, #32768	@ 0x8000
 8000cfa:	f44f 6040 	mov.w	r0, #3072	@ 0xc00
 8000cfe:	f2c4 0001 	movt	r0, #16385	@ 0x4001
 8000d02:	f001 fc33 	bl	800256c <HAL_GPIO_WritePin>
}
 8000d06:	bd08      	pop	{r3, pc}

08000d08 <LCD_Init>:

void LCD_Init(void)
{
 8000d08:	b510      	push	{r4, lr}
    /* Ensure control lines default */
    HAL_GPIO_WritePin(LCD_E_GPIO_Port, LCD_E_Pin, GPIO_PIN_RESET);
 8000d0a:	f44f 6440 	mov.w	r4, #3072	@ 0xc00
 8000d0e:	f2c4 0401 	movt	r4, #16385	@ 0x4001
 8000d12:	2200      	movs	r2, #0
 8000d14:	2110      	movs	r1, #16
 8000d16:	4620      	mov	r0, r4
 8000d18:	f001 fc28 	bl	800256c <HAL_GPIO_WritePin>
    HAL_GPIO_WritePin(LCD_RS_GPIO_Port, LCD_RS_Pin, GPIO_PIN_RESET);
 8000d1c:	2200      	movs	r2, #0
 8000d1e:	2108      	movs	r1, #8
 8000d20:	4620      	mov	r0, r4
 8000d22:	f001 fc23 	bl	800256c <HAL_GPIO_WritePin>

    /* Wait for LCD power up */
    HAL_Delay(40);
 8000d26:	2028      	movs	r0, #40	@ 0x28
 8000d28:	f001 f9c1 	bl	80020ae <HAL_Delay>

    /* 4-bit init sequence per HD44780 datasheet */
    lcd_write4(0x03);
 8000d2c:	2003      	movs	r0, #3
 8000d2e:	f7ff ff93 	bl	8000c58 <lcd_write4>
    HAL_Delay(5);
 8000d32:	2005      	movs	r0, #5
 8000d34:	f001 f9bb 	bl	80020ae <HAL_Delay>
    lcd_write4(0x03);
 8000d38:	2003      	movs	r0, #3
 8000d3a:	f7ff ff8d 	bl	8000c58 <lcd_write4>
    lcd_delay_us(150);
 8000d3e:	2096      	movs	r0, #150	@ 0x96
 8000d40:	f7ff ff64 	bl	8000c0c <lcd_delay_us>
    lcd_write4(0x03);
 8000d44:	2003      	movs	r0, #3
 8000d46:	f7ff ff87 	bl	8000c58 <lcd_write4>
    lcd_delay_us(150);
 8000d4a:	2096      	movs	r0, #150	@ 0x96
 8000d4c:	f7ff ff5e 	bl	8000c0c <lcd_delay_us>
    lcd_write4(0x02); /* set 4-bit mode */
 8000d50:	2002      	movs	r0, #2
 8000d52:	f7ff ff81 	bl	8000c58 <lcd_write4>

    /* Function set: 4-bit, 2-line (20x4 uses 2-line controller), 5x8 dots */
    lcd_send(0x28, 0);
 8000d56:	2100      	movs	r1, #0
 8000d58:	2028      	movs	r0, #40	@ 0x28
 8000d5a:	f7ff ffb4 	bl	8000cc6 <lcd_send>
    /* Display OFF */
    lcd_send(0x08, 0);
 8000d5e:	2100      	movs	r1, #0
 8000d60:	2008      	movs	r0, #8
 8000d62:	f7ff ffb0 	bl	8000cc6 <lcd_send>
    /* Clear display */
    lcd_send(0x01, 0);
 8000d66:	2100      	movs	r1, #0
 8000d68:	2001      	movs	r0, #1
 8000d6a:	f7ff ffac 	bl	8000cc6 <lcd_send>
    HAL_Delay(2);
 8000d6e:	2002      	movs	r0, #2
 8000d70:	f001 f99d 	bl	80020ae <HAL_Delay>
    /* Entry mode: increment, no shift */
    lcd_send(0x06, 0);
 8000d74:	2100      	movs	r1, #0
 8000d76:	2006      	movs	r0, #6
 8000d78:	f7ff ffa5 	bl	8000cc6 <lcd_send>
    /* Display ON, cursor off, blink off */
    lcd_send(0x0C, 0);
 8000d7c:	2100      	movs	r1, #0
 8000d7e:	200c      	movs	r0, #12
 8000d80:	f7ff ffa1 	bl	8000cc6 <lcd_send>
}
 8000d84:	bd10      	pop	{r4, pc}

08000d86 <LCD_Clear>:

void LCD_Clear(void)
{
 8000d86:	b508      	push	{r3, lr}
    lcd_send(0x01, 0);
 8000d88:	2100      	movs	r1, #0
 8000d8a:	2001      	movs	r0, #1
 8000d8c:	f7ff ff9b 	bl	8000cc6 <lcd_send>
    HAL_Delay(2);
 8000d90:	2002      	movs	r0, #2
 8000d92:	f001 f98c 	bl	80020ae <HAL_Delay>
}
 8000d96:	bd08      	pop	{r3, pc}

08000d98 <LCD_SetCursor>:
    lcd_send(0x02, 0);
    HAL_Delay(2);
}

void LCD_SetCursor(uint8_t col, uint8_t row)
{
 8000d98:	b508      	push	{r3, lr}
    /* JHD204A 20x4 DDRAM mapping */
    static const uint8_t row_offsets[4] = {0x00, 0x40, 0x14, 0x54};
    if (row > 3) row = 3;
    lcd_send((uint8_t)(0x80 | (row_offsets[row] + col)), 0);
 8000d9a:	f643 3370 	movw	r3, #15216	@ 0x3b70
 8000d9e:	f6c0 0300 	movt	r3, #2048	@ 0x800
 8000da2:	2903      	cmp	r1, #3
 8000da4:	bf28      	it	cs
 8000da6:	2103      	movcs	r1, #3
 8000da8:	5c5b      	ldrb	r3, [r3, r1]
 8000daa:	4418      	add	r0, r3
 8000dac:	f060 007f 	orn	r0, r0, #127	@ 0x7f
 8000db0:	2100      	movs	r1, #0
 8000db2:	b2c0      	uxtb	r0, r0
 8000db4:	f7ff ff87 	bl	8000cc6 <lcd_send>
}
 8000db8:	bd08      	pop	{r3, pc}

08000dba <LCD_WriteChar>:

void LCD_WriteChar(char c)
{
 8000dba:	b508      	push	{r3, lr}
    lcd_send((uint8_t)c, 1);
 8000dbc:	2101      	movs	r1, #1
 8000dbe:	f7ff ff82 	bl	8000cc6 <lcd_send>
}
 8000dc2:	bd08      	pop	{r3, pc}

08000dc4 <LCD_Print>:

void LCD_Print(const char *str)
{
    if (str == NULL) return;
 8000dc4:	b150      	cbz	r0, 8000ddc <LCD_Print+0x18>
{
 8000dc6:	b510      	push	{r4, lr}
 8000dc8:	4604      	mov	r4, r0
    while (*str) {
 8000dca:	7800      	ldrb	r0, [r0, #0]
 8000dcc:	b128      	cbz	r0, 8000dda <LCD_Print+0x16>
        LCD_WriteChar(*str++);
 8000dce:	f7ff fff4 	bl	8000dba <LCD_WriteChar>
    while (*str) {
 8000dd2:	f814 0f01 	ldrb.w	r0, [r4, #1]!
 8000dd6:	2800      	cmp	r0, #0
 8000dd8:	d1f9      	bne.n	8000dce <LCD_Print+0xa>
    }
}
 8000dda:	bd10      	pop	{r4, pc}
 8000ddc:	4770      	bx	lr

08000dde <LCD_PrintUInt16>:
    buf[idx] = '\0';
    LCD_Print(buf);
}

void LCD_PrintUInt16(uint16_t value)
{
 8000dde:	b500      	push	{lr}
 8000de0:	b083      	sub	sp, #12
    char buf[6]; /* max 65535 */
    int idx = 0;
    
    /* Handle thousands */
    if (value >= 10000) {
 8000de2:	f242 730f 	movw	r3, #9999	@ 0x270f
 8000de6:	4298      	cmp	r0, r3
 8000de8:	d963      	bls.n	8000eb2 <LCD_PrintUInt16+0xd4>
        buf[idx++] = (char)('0' + (value / 10000));
 8000dea:	f241 7359 	movw	r3, #5977	@ 0x1759
 8000dee:	f2cd 13b7 	movt	r3, #53687	@ 0xd1b7
 8000df2:	fba3 2300 	umull	r2, r3, r3, r0
 8000df6:	0b5b      	lsrs	r3, r3, #13
 8000df8:	f103 0230 	add.w	r2, r3, #48	@ 0x30
 8000dfc:	f88d 2000 	strb.w	r2, [sp]
        value = (uint16_t)(value % 10000);
 8000e00:	f242 7210 	movw	r2, #10000	@ 0x2710
 8000e04:	fb02 0313 	mls	r3, r2, r3, r0
 8000e08:	b298      	uxth	r0, r3
        buf[idx++] = (char)('0' + (value / 10000));
 8000e0a:	2301      	movs	r3, #1
    }
    if (value >= 1000) {
 8000e0c:	f5b0 7f7a 	cmp.w	r0, #1000	@ 0x3e8
 8000e10:	d314      	bcc.n	8000e3c <LCD_PrintUInt16+0x5e>
        buf[idx++] = (char)('0' + (value / 1000));
 8000e12:	f103 0208 	add.w	r2, r3, #8
 8000e16:	eb0d 0102 	add.w	r1, sp, r2
 8000e1a:	f644 52d3 	movw	r2, #19923	@ 0x4dd3
 8000e1e:	f2c1 0262 	movt	r2, #4194	@ 0x1062
 8000e22:	fba2 c200 	umull	ip, r2, r2, r0
 8000e26:	0992      	lsrs	r2, r2, #6
 8000e28:	f102 0c30 	add.w	ip, r2, #48	@ 0x30
 8000e2c:	f801 cc08 	strb.w	ip, [r1, #-8]
        value = (uint16_t)(value % 1000);
 8000e30:	f44f 717a 	mov.w	r1, #1000	@ 0x3e8
 8000e34:	fb01 0212 	mls	r2, r1, r2, r0
 8000e38:	b290      	uxth	r0, r2
        buf[idx++] = (char)('0' + (value / 1000));
 8000e3a:	3301      	adds	r3, #1
    }
    if (value >= 100) {
 8000e3c:	2863      	cmp	r0, #99	@ 0x63
 8000e3e:	d913      	bls.n	8000e68 <LCD_PrintUInt16+0x8a>
        buf[idx++] = (char)('0' + (value / 100));
 8000e40:	f103 0208 	add.w	r2, r3, #8
 8000e44:	eb0d 0102 	add.w	r1, sp, r2
 8000e48:	f248 521f 	movw	r2, #34079	@ 0x851f
 8000e4c:	f2c5 12eb 	movt	r2, #20971	@ 0x51eb
 8000e50:	fba2 c200 	umull	ip, r2, r2, r0
 8000e54:	0952      	lsrs	r2, r2, #5
 8000e56:	f102 0c30 	add.w	ip, r2, #48	@ 0x30
 8000e5a:	f801 cc08 	strb.w	ip, [r1, #-8]
        value = (uint16_t)(value % 100);
 8000e5e:	2164      	movs	r1, #100	@ 0x64
 8000e60:	fb01 0212 	mls	r2, r1, r2, r0
 8000e64:	b290      	uxth	r0, r2
        buf[idx++] = (char)('0' + (value / 100));
 8000e66:	3301      	adds	r3, #1
    }
    if (value >= 10) {
 8000e68:	2809      	cmp	r0, #9
 8000e6a:	d914      	bls.n	8000e96 <LCD_PrintUInt16+0xb8>
        buf[idx++] = (char)('0' + (value / 10));
 8000e6c:	f103 0208 	add.w	r2, r3, #8
 8000e70:	eb0d 0102 	add.w	r1, sp, r2
 8000e74:	f64c 42cd 	movw	r2, #52429	@ 0xcccd
 8000e78:	f6cc 42cc 	movt	r2, #52428	@ 0xcccc
 8000e7c:	fba2 c200 	umull	ip, r2, r2, r0
 8000e80:	08d2      	lsrs	r2, r2, #3
 8000e82:	f102 0c30 	add.w	ip, r2, #48	@ 0x30
 8000e86:	f801 cc08 	strb.w	ip, [r1, #-8]
        value = (uint16_t)(value % 10);
 8000e8a:	eb02 0282 	add.w	r2, r2, r2, lsl #2
 8000e8e:	eba0 0242 	sub.w	r2, r0, r2, lsl #1
 8000e92:	b290      	uxth	r0, r2
        buf[idx++] = (char)('0' + (value / 10));
 8000e94:	3301      	adds	r3, #1
    }
    buf[idx++] = (char)('0' + value);
 8000e96:	3308      	adds	r3, #8
 8000e98:	446b      	add	r3, sp
 8000e9a:	3030      	adds	r0, #48	@ 0x30
 8000e9c:	f803 0c08 	strb.w	r0, [r3, #-8]
    buf[idx] = '\0';
 8000ea0:	2200      	movs	r2, #0
 8000ea2:	f803 2c07 	strb.w	r2, [r3, #-7]
    LCD_Print(buf);
 8000ea6:	4668      	mov	r0, sp
 8000ea8:	f7ff ff8c 	bl	8000dc4 <LCD_Print>
}
 8000eac:	b003      	add	sp, #12
 8000eae:	f85d fb04 	ldr.w	pc, [sp], #4
    int idx = 0;
 8000eb2:	2300      	movs	r3, #0
 8000eb4:	e7aa      	b.n	8000e0c <LCD_PrintUInt16+0x2e>

08000eb6 <LCD_PrintUInt16_1dp>:
    }
    LCD_PrintUInt16((uint16_t)value);
}

void LCD_PrintUInt16_1dp(uint16_t value_times_10)
{
 8000eb6:	b538      	push	{r3, r4, r5, lr}
    uint16_t integer = value_times_10 / 10u;
 8000eb8:	f64c 42cd 	movw	r2, #52429	@ 0xcccd
 8000ebc:	f6cc 42cc 	movt	r2, #52428	@ 0xcccc
 8000ec0:	fba2 3200 	umull	r3, r2, r2, r0
 8000ec4:	08d3      	lsrs	r3, r2, #3
 8000ec6:	461d      	mov	r5, r3
    uint16_t frac = value_times_10 % 10u;
 8000ec8:	eb03 0383 	add.w	r3, r3, r3, lsl #2
 8000ecc:	eba0 0443 	sub.w	r4, r0, r3, lsl #1
 8000ed0:	b2a4      	uxth	r4, r4
    /* Pad to fixed width 4: " 9.0" or "19.4" */
    if (integer < 10u) {
 8000ed2:	2863      	cmp	r0, #99	@ 0x63
 8000ed4:	d90b      	bls.n	8000eee <LCD_PrintUInt16_1dp+0x38>
        LCD_WriteChar(' ');
    }
    LCD_PrintUInt16(integer);
 8000ed6:	4628      	mov	r0, r5
 8000ed8:	f7ff ff81 	bl	8000dde <LCD_PrintUInt16>
    LCD_WriteChar('.');
 8000edc:	202e      	movs	r0, #46	@ 0x2e
 8000ede:	f7ff ff6c 	bl	8000dba <LCD_WriteChar>
    LCD_WriteChar((char)('0' + frac));
 8000ee2:	f104 0030 	add.w	r0, r4, #48	@ 0x30
 8000ee6:	b2c0      	uxtb	r0, r0
 8000ee8:	f7ff ff67 	bl	8000dba <LCD_WriteChar>
}
 8000eec:	bd38      	pop	{r3, r4, r5, pc}
        LCD_WriteChar(' ');
 8000eee:	2020      	movs	r0, #32
 8000ef0:	f7ff ff63 	bl	8000dba <LCD_WriteChar>
 8000ef4:	e7ef      	b.n	8000ed6 <LCD_PrintUInt16_1dp+0x20>

08000ef6 <lcd_menu_set_language>:
	pageID = page;
	LCD_Clear();
}

void lcd_menu_set_language(uint8_t lang_id)
{
 8000ef6:	b508      	push	{r3, lr}
	lcdLangId = (lang_id != 0) ? 1u : 0u;
 8000ef8:	f240 231b 	movw	r3, #539	@ 0x21b
 8000efc:	f2c2 0300 	movt	r3, #8192	@ 0x2000
 8000f00:	3800      	subs	r0, #0
 8000f02:	bf18      	it	ne
 8000f04:	2001      	movne	r0, #1
 8000f06:	7018      	strb	r0, [r3, #0]
	LCD_Clear();
 8000f08:	f7ff ff3d 	bl	8000d86 <LCD_Clear>
}
 8000f0c:	bd08      	pop	{r3, pc}

08000f0e <lcd_handle>:

void lcd_handle(void)
{
 8000f0e:	b538      	push	{r3, r4, r5, lr}
	/* Clear once when page changes or explicitly requested */
	if (pageID != prevPageID || uiNeedsClear) {
 8000f10:	f240 221d 	movw	r2, #541	@ 0x21d
 8000f14:	f2c2 0200 	movt	r2, #8192	@ 0x2000
 8000f18:	f240 0300 	movw	r3, #0
 8000f1c:	f2c2 0300 	movt	r3, #8192	@ 0x2000
 8000f20:	7812      	ldrb	r2, [r2, #0]
 8000f22:	781b      	ldrb	r3, [r3, #0]
 8000f24:	429a      	cmp	r2, r3
 8000f26:	d105      	bne.n	8000f34 <lcd_handle+0x26>
 8000f28:	f240 231a 	movw	r3, #538	@ 0x21a
 8000f2c:	f2c2 0300 	movt	r3, #8192	@ 0x2000
 8000f30:	781b      	ldrb	r3, [r3, #0]
 8000f32:	b18b      	cbz	r3, 8000f58 <lcd_handle+0x4a>
		LCD_Clear();
 8000f34:	f7ff ff27 	bl	8000d86 <LCD_Clear>
		prevPageID = pageID;
 8000f38:	f240 0300 	movw	r3, #0
 8000f3c:	f2c2 0300 	movt	r3, #8192	@ 0x2000
 8000f40:	f240 221d 	movw	r2, #541	@ 0x21d
 8000f44:	f2c2 0200 	movt	r2, #8192	@ 0x2000
 8000f48:	7812      	ldrb	r2, [r2, #0]
 8000f4a:	701a      	strb	r2, [r3, #0]
		uiNeedsClear = 0;
 8000f4c:	f240 231a 	movw	r3, #538	@ 0x21a
 8000f50:	f2c2 0300 	movt	r3, #8192	@ 0x2000
 8000f54:	2200      	movs	r2, #0
 8000f56:	701a      	strb	r2, [r3, #0]
	}

	switch(pageID)
 8000f58:	f240 231d 	movw	r3, #541	@ 0x21d
 8000f5c:	f2c2 0300 	movt	r3, #8192	@ 0x2000
 8000f60:	781b      	ldrb	r3, [r3, #0]
 8000f62:	2b00      	cmp	r3, #0
 8000f64:	f000 80a6 	beq.w	80010b4 <lcd_handle+0x1a6>
 8000f68:	2b01      	cmp	r3, #1
 8000f6a:	f040 80cf 	bne.w	800110c <lcd_handle+0x1fe>
	}
		break;

	case PAGE_MAIN:
	{
		const char * title = (lcdLangId == 0) ? MAIN_TITLE_EN : MAIN_TITLE_TR;
 8000f6e:	f240 231b 	movw	r3, #539	@ 0x21b
 8000f72:	f2c2 0300 	movt	r3, #8192	@ 0x2000
 8000f76:	7819      	ldrb	r1, [r3, #0]
 8000f78:	f643 3388 	movw	r3, #15240	@ 0x3b88
 8000f7c:	f6c0 0300 	movt	r3, #2048	@ 0x800
 8000f80:	f643 3274 	movw	r2, #15220	@ 0x3b74
 8000f84:	f6c0 0200 	movt	r2, #2048	@ 0x800
 8000f88:	2900      	cmp	r1, #0
 8000f8a:	bf0c      	ite	eq
 8000f8c:	461d      	moveq	r5, r3
 8000f8e:	4615      	movne	r5, r2
 8000f90:	f643 4474 	movw	r4, #15476	@ 0x3c74
 8000f94:	f6c0 0400 	movt	r4, #2048	@ 0x800
 8000f98:	f643 4364 	movw	r3, #15460	@ 0x3c64
 8000f9c:	f6c0 0300 	movt	r3, #2048	@ 0x800
 8000fa0:	2900      	cmp	r1, #0
 8000fa2:	bf18      	it	ne
 8000fa4:	461c      	movne	r4, r3
		const char * const * labelsShort = (lcdLangId == 0) ? LABELS_EN_SHORT : LABELS_TR_SHORT;

		/* Title (row 0) */
		LCD_SetCursor(0, 0);
 8000fa6:	2100      	movs	r1, #0
 8000fa8:	4608      	mov	r0, r1
 8000faa:	f7ff fef5 	bl	8000d98 <LCD_SetCursor>
		LCD_Print(title);
 8000fae:	4628      	mov	r0, r5
 8000fb0:	f7ff ff08 	bl	8000dc4 <LCD_Print>

		/* Row 1 (index 1): Iout / Cikis I */
		LCD_SetCursor(0, 1);
 8000fb4:	2101      	movs	r1, #1
 8000fb6:	2000      	movs	r0, #0
 8000fb8:	f7ff feee 	bl	8000d98 <LCD_SetCursor>
		LCD_Print(labelsShort[0]);
 8000fbc:	6820      	ldr	r0, [r4, #0]
 8000fbe:	f7ff ff01 	bl	8000dc4 <LCD_Print>
		LCD_PrintUInt16_1dp(adcIDC2);
 8000fc2:	f240 0392 	movw	r3, #146	@ 0x92
 8000fc6:	f2c2 0300 	movt	r3, #8192	@ 0x2000
 8000fca:	8818      	ldrh	r0, [r3, #0]
 8000fcc:	f7ff ff73 	bl	8000eb6 <LCD_PrintUInt16_1dp>
		LCD_WriteChar((lcdLangId == 0) ? 'I' : 'A');
 8000fd0:	f240 231b 	movw	r3, #539	@ 0x21b
 8000fd4:	f2c2 0300 	movt	r3, #8192	@ 0x2000
 8000fd8:	781b      	ldrb	r3, [r3, #0]
 8000fda:	2b00      	cmp	r3, #0
 8000fdc:	bf14      	ite	ne
 8000fde:	2041      	movne	r0, #65	@ 0x41
 8000fe0:	2049      	moveq	r0, #73	@ 0x49
 8000fe2:	f7ff feea 	bl	8000dba <LCD_WriteChar>

		/* Row 2 (index 2): Vout / Cikis V */
		LCD_SetCursor(0, 2);
 8000fe6:	2102      	movs	r1, #2
 8000fe8:	2000      	movs	r0, #0
 8000fea:	f7ff fed5 	bl	8000d98 <LCD_SetCursor>
		LCD_Print(labelsShort[1]);
 8000fee:	6860      	ldr	r0, [r4, #4]
 8000ff0:	f7ff fee8 	bl	8000dc4 <LCD_Print>
		LCD_PrintUInt16_1dp(adcVBAT1);
 8000ff4:	f240 0398 	movw	r3, #152	@ 0x98
 8000ff8:	f2c2 0300 	movt	r3, #8192	@ 0x2000
 8000ffc:	8818      	ldrh	r0, [r3, #0]
 8000ffe:	f7ff ff5a 	bl	8000eb6 <LCD_PrintUInt16_1dp>
		LCD_WriteChar('V');
 8001002:	2056      	movs	r0, #86	@ 0x56
 8001004:	f7ff fed9 	bl	8000dba <LCD_WriteChar>

		/* Status moved one row down: right side of row 1 */
		{
			uint8_t statusCol = (lcdLangId == 0) ? 15u : 14u; /* TR 'Kapali' 6 char => start at 14 */
 8001008:	f240 231b 	movw	r3, #539	@ 0x21b
 800100c:	f2c2 0300 	movt	r3, #8192	@ 0x2000
 8001010:	781b      	ldrb	r3, [r3, #0]
 8001012:	2b00      	cmp	r3, #0
			LCD_SetCursor(statusCol, 1);
 8001014:	f04f 0101 	mov.w	r1, #1
 8001018:	bf14      	ite	ne
 800101a:	200e      	movne	r0, #14
 800101c:	200f      	moveq	r0, #15
 800101e:	f7ff febb 	bl	8000d98 <LCD_SetCursor>
			if (lcdLangId == 0) {
 8001022:	f240 231b 	movw	r3, #539	@ 0x21b
 8001026:	f2c2 0300 	movt	r3, #8192	@ 0x2000
 800102a:	781b      	ldrb	r3, [r3, #0]
 800102c:	2b00      	cmp	r3, #0
 800102e:	d16e      	bne.n	800110e <lcd_handle+0x200>
				LCD_Print((HAL_GPIO_ReadPin(SHUTDOWN2_GPIO_Port, SHUTDOWN2_Pin) == GPIO_PIN_SET) ? "Open" : "Close");
 8001030:	f44f 4180 	mov.w	r1, #16384	@ 0x4000
 8001034:	f44f 5080 	mov.w	r0, #4096	@ 0x1000
 8001038:	f2c4 0001 	movt	r0, #16385	@ 0x4001
 800103c:	f001 fa90 	bl	8002560 <HAL_GPIO_ReadPin>
 8001040:	f643 32a4 	movw	r2, #15268	@ 0x3ba4
 8001044:	f6c0 0200 	movt	r2, #2048	@ 0x800
 8001048:	f643 339c 	movw	r3, #15260	@ 0x3b9c
 800104c:	f6c0 0300 	movt	r3, #2048	@ 0x800
 8001050:	2801      	cmp	r0, #1
 8001052:	bf14      	ite	ne
 8001054:	4610      	movne	r0, r2
 8001056:	4618      	moveq	r0, r3
 8001058:	f7ff feb4 	bl	8000dc4 <LCD_Print>
				LCD_Print((HAL_GPIO_ReadPin(SHUTDOWN2_GPIO_Port, SHUTDOWN2_Pin) == GPIO_PIN_SET) ? "Acik" : "Kapali");
			}
		}

		/* Row 3: Mains/Sebeke and Temp/Sic split across the line */
		LCD_SetCursor(0, 3);
 800105c:	2103      	movs	r1, #3
 800105e:	2000      	movs	r0, #0
 8001060:	f7ff fe9a 	bl	8000d98 <LCD_SetCursor>
		LCD_Print(labelsShort[2]); /* Sebeke/Mains */
 8001064:	68a0      	ldr	r0, [r4, #8]
 8001066:	f7ff fead 	bl	8000dc4 <LCD_Print>
		LCD_PrintUInt16(adcVAC);
 800106a:	f240 039e 	movw	r3, #158	@ 0x9e
 800106e:	f2c2 0300 	movt	r3, #8192	@ 0x2000
 8001072:	8818      	ldrh	r0, [r3, #0]
 8001074:	f7ff feb3 	bl	8000dde <LCD_PrintUInt16>
		LCD_WriteChar('V');
 8001078:	2056      	movs	r0, #86	@ 0x56
 800107a:	f7ff fe9e 	bl	8000dba <LCD_WriteChar>
		{
			uint8_t tempCol = (lcdLangId == 0) ? 11u : 12u; /* TR'de Sic biraz saga */
 800107e:	f240 231b 	movw	r3, #539	@ 0x21b
 8001082:	f2c2 0300 	movt	r3, #8192	@ 0x2000
 8001086:	781b      	ldrb	r3, [r3, #0]
 8001088:	2b00      	cmp	r3, #0
			LCD_SetCursor(tempCol, 3);
 800108a:	f04f 0103 	mov.w	r1, #3
 800108e:	bf14      	ite	ne
 8001090:	200c      	movne	r0, #12
 8001092:	200b      	moveq	r0, #11
 8001094:	f7ff fe80 	bl	8000d98 <LCD_SetCursor>
		}
		LCD_Print(labelsShort[3]); /* Temp/Sic */
 8001098:	68e0      	ldr	r0, [r4, #12]
 800109a:	f7ff fe93 	bl	8000dc4 <LCD_Print>
		LCD_PrintUInt16(adcTEMP);
 800109e:	f240 039c 	movw	r3, #156	@ 0x9c
 80010a2:	f2c2 0300 	movt	r3, #8192	@ 0x2000
 80010a6:	8818      	ldrh	r0, [r3, #0]
 80010a8:	f7ff fe99 	bl	8000dde <LCD_PrintUInt16>
		LCD_WriteChar('C');
 80010ac:	2043      	movs	r0, #67	@ 0x43
 80010ae:	f7ff fe84 	bl	8000dba <LCD_WriteChar>

	default:
		break;
	}

}
 80010b2:	e02b      	b.n	800110c <lcd_handle+0x1fe>
		const char * const * lines = (lcdLangId == 0) ? LOADING_EN : LOADING_TR; /* pointer-to-pointer selector */
 80010b4:	f240 231b 	movw	r3, #539	@ 0x21b
 80010b8:	f2c2 0300 	movt	r3, #8192	@ 0x2000
 80010bc:	781a      	ldrb	r2, [r3, #0]
 80010be:	f643 4484 	movw	r4, #15492	@ 0x3c84
 80010c2:	f6c0 0400 	movt	r4, #2048	@ 0x800
 80010c6:	f643 4394 	movw	r3, #15508	@ 0x3c94
 80010ca:	f6c0 0300 	movt	r3, #2048	@ 0x800
 80010ce:	2a00      	cmp	r2, #0
 80010d0:	bf08      	it	eq
 80010d2:	461c      	moveq	r4, r3
		LCD_SetCursor(0, 0); LCD_Print(lines[0]);
 80010d4:	2100      	movs	r1, #0
 80010d6:	4608      	mov	r0, r1
 80010d8:	f7ff fe5e 	bl	8000d98 <LCD_SetCursor>
 80010dc:	6820      	ldr	r0, [r4, #0]
 80010de:	f7ff fe71 	bl	8000dc4 <LCD_Print>
		LCD_SetCursor(0, 1); LCD_Print(lines[1]);
 80010e2:	2101      	movs	r1, #1
 80010e4:	2000      	movs	r0, #0
 80010e6:	f7ff fe57 	bl	8000d98 <LCD_SetCursor>
 80010ea:	6860      	ldr	r0, [r4, #4]
 80010ec:	f7ff fe6a 	bl	8000dc4 <LCD_Print>
		LCD_SetCursor(0, 2); LCD_Print(lines[2]);
 80010f0:	2102      	movs	r1, #2
 80010f2:	2000      	movs	r0, #0
 80010f4:	f7ff fe50 	bl	8000d98 <LCD_SetCursor>
 80010f8:	68a0      	ldr	r0, [r4, #8]
 80010fa:	f7ff fe63 	bl	8000dc4 <LCD_Print>
		LCD_SetCursor(0, 3); LCD_Print(lines[3]);
 80010fe:	2103      	movs	r1, #3
 8001100:	2000      	movs	r0, #0
 8001102:	f7ff fe49 	bl	8000d98 <LCD_SetCursor>
 8001106:	68e0      	ldr	r0, [r4, #12]
 8001108:	f7ff fe5c 	bl	8000dc4 <LCD_Print>
}
 800110c:	bd38      	pop	{r3, r4, r5, pc}
				LCD_Print((HAL_GPIO_ReadPin(SHUTDOWN2_GPIO_Port, SHUTDOWN2_Pin) == GPIO_PIN_SET) ? "Acik" : "Kapali");
 800110e:	f44f 4180 	mov.w	r1, #16384	@ 0x4000
 8001112:	f44f 5080 	mov.w	r0, #4096	@ 0x1000
 8001116:	f2c4 0001 	movt	r0, #16385	@ 0x4001
 800111a:	f001 fa21 	bl	8002560 <HAL_GPIO_ReadPin>
 800111e:	f643 32b4 	movw	r2, #15284	@ 0x3bb4
 8001122:	f6c0 0200 	movt	r2, #2048	@ 0x800
 8001126:	f643 33ac 	movw	r3, #15276	@ 0x3bac
 800112a:	f6c0 0300 	movt	r3, #2048	@ 0x800
 800112e:	2801      	cmp	r0, #1
 8001130:	bf14      	ite	ne
 8001132:	4610      	movne	r0, r2
 8001134:	4618      	moveq	r0, r3
 8001136:	f7ff fe45 	bl	8000dc4 <LCD_Print>
 800113a:	e78f      	b.n	800105c <lcd_handle+0x14e>

0800113c <button_handle>:

void button_handle(void)
{
 800113c:	b508      	push	{r3, lr}
	if (buttonState == 0) {
 800113e:	f240 231c 	movw	r3, #540	@ 0x21c
 8001142:	f2c2 0300 	movt	r3, #8192	@ 0x2000
 8001146:	781b      	ldrb	r3, [r3, #0]
 8001148:	2b00      	cmp	r3, #0
 800114a:	d046      	beq.n	80011da <button_handle+0x9e>
		return;
	}

	/* Button order: Left, On, Up, Down, Right, Off */
	/* Left: previous page */
	if (buttonState & BUT_LEFT_M) {
 800114c:	f013 0f01 	tst.w	r3, #1
 8001150:	d00f      	beq.n	8001172 <button_handle+0x36>
		if (pageID == PAGE_MAIN) {
 8001152:	f240 231d 	movw	r3, #541	@ 0x21d
 8001156:	f2c2 0300 	movt	r3, #8192	@ 0x2000
 800115a:	781b      	ldrb	r3, [r3, #0]
 800115c:	2b01      	cmp	r3, #1
	pageID = page;
 800115e:	f240 231d 	movw	r3, #541	@ 0x21d
 8001162:	f2c2 0300 	movt	r3, #8192	@ 0x2000
 8001166:	bf0c      	ite	eq
 8001168:	2200      	moveq	r2, #0
 800116a:	2201      	movne	r2, #1
 800116c:	701a      	strb	r2, [r3, #0]
	LCD_Clear();
 800116e:	f7ff fe0a 	bl	8000d86 <LCD_Clear>
		} else {
			lcd_menu_set_page(PAGE_MAIN);
		}
	}
	/* On: set SHUTDOWN2 = 1 */
	if (buttonState & BUT_ON_M) {
 8001172:	f240 231c 	movw	r3, #540	@ 0x21c
 8001176:	f2c2 0300 	movt	r3, #8192	@ 0x2000
 800117a:	781b      	ldrb	r3, [r3, #0]
 800117c:	f013 0f02 	tst.w	r3, #2
 8001180:	d12c      	bne.n	80011dc <button_handle+0xa0>
		HAL_GPIO_WritePin(SHUTDOWN2_GPIO_Port, SHUTDOWN2_Pin, GPIO_PIN_SET);
	}
	/* Up: toggle language EN/TR */
	if (buttonState & BUT_UP_M) {
 8001182:	f240 231c 	movw	r3, #540	@ 0x21c
 8001186:	f2c2 0300 	movt	r3, #8192	@ 0x2000
 800118a:	781b      	ldrb	r3, [r3, #0]
 800118c:	f013 0f04 	tst.w	r3, #4
 8001190:	d12e      	bne.n	80011f0 <button_handle+0xb4>
		lcd_menu_set_language((uint8_t)(lcdLangId ^ 1u));
	}
	/* Down: no action */
	/* Right: next page */
	if (buttonState & BUT_RIGHT_M) {
 8001192:	f240 231c 	movw	r3, #540	@ 0x21c
 8001196:	f2c2 0300 	movt	r3, #8192	@ 0x2000
 800119a:	781b      	ldrb	r3, [r3, #0]
 800119c:	f013 0f10 	tst.w	r3, #16
 80011a0:	d00d      	beq.n	80011be <button_handle+0x82>
		if (pageID == PAGE_LOADING) {
 80011a2:	f240 231d 	movw	r3, #541	@ 0x21d
 80011a6:	f2c2 0300 	movt	r3, #8192	@ 0x2000
 80011aa:	781b      	ldrb	r3, [r3, #0]
 80011ac:	bb53      	cbnz	r3, 8001204 <button_handle+0xc8>
	pageID = page;
 80011ae:	f240 231d 	movw	r3, #541	@ 0x21d
 80011b2:	f2c2 0300 	movt	r3, #8192	@ 0x2000
 80011b6:	2201      	movs	r2, #1
 80011b8:	701a      	strb	r2, [r3, #0]
	LCD_Clear();
 80011ba:	f7ff fde4 	bl	8000d86 <LCD_Clear>
		} else {
			lcd_menu_set_page(PAGE_LOADING);
		}
	}
	/* Off: set SHUTDOWN2 = 0 */
	if (buttonState & BUT_OFF_M) {
 80011be:	f240 231c 	movw	r3, #540	@ 0x21c
 80011c2:	f2c2 0300 	movt	r3, #8192	@ 0x2000
 80011c6:	781b      	ldrb	r3, [r3, #0]
 80011c8:	f013 0f20 	tst.w	r3, #32
 80011cc:	d123      	bne.n	8001216 <button_handle+0xda>
		HAL_GPIO_WritePin(SHUTDOWN2_GPIO_Port, SHUTDOWN2_Pin, GPIO_PIN_RESET);
	}

	buttonState = 0;
 80011ce:	f240 231c 	movw	r3, #540	@ 0x21c
 80011d2:	f2c2 0300 	movt	r3, #8192	@ 0x2000
 80011d6:	2200      	movs	r2, #0
 80011d8:	701a      	strb	r2, [r3, #0]
}
 80011da:	bd08      	pop	{r3, pc}
		HAL_GPIO_WritePin(SHUTDOWN2_GPIO_Port, SHUTDOWN2_Pin, GPIO_PIN_SET);
 80011dc:	2201      	movs	r2, #1
 80011de:	f44f 4180 	mov.w	r1, #16384	@ 0x4000
 80011e2:	f44f 5080 	mov.w	r0, #4096	@ 0x1000
 80011e6:	f2c4 0001 	movt	r0, #16385	@ 0x4001
 80011ea:	f001 f9bf 	bl	800256c <HAL_GPIO_WritePin>
 80011ee:	e7c8      	b.n	8001182 <button_handle+0x46>
		lcd_menu_set_language((uint8_t)(lcdLangId ^ 1u));
 80011f0:	f240 231b 	movw	r3, #539	@ 0x21b
 80011f4:	f2c2 0300 	movt	r3, #8192	@ 0x2000
 80011f8:	7818      	ldrb	r0, [r3, #0]
 80011fa:	f080 0001 	eor.w	r0, r0, #1
 80011fe:	f7ff fe7a 	bl	8000ef6 <lcd_menu_set_language>
 8001202:	e7c6      	b.n	8001192 <button_handle+0x56>
	pageID = page;
 8001204:	f240 231d 	movw	r3, #541	@ 0x21d
 8001208:	f2c2 0300 	movt	r3, #8192	@ 0x2000
 800120c:	2200      	movs	r2, #0
 800120e:	701a      	strb	r2, [r3, #0]
	LCD_Clear();
 8001210:	f7ff fdb9 	bl	8000d86 <LCD_Clear>
}
 8001214:	e7d3      	b.n	80011be <button_handle+0x82>
		HAL_GPIO_WritePin(SHUTDOWN2_GPIO_Port, SHUTDOWN2_Pin, GPIO_PIN_RESET);
 8001216:	2200      	movs	r2, #0
 8001218:	f44f 4180 	mov.w	r1, #16384	@ 0x4000
 800121c:	f44f 5080 	mov.w	r0, #4096	@ 0x1000
 8001220:	f2c4 0001 	movt	r0, #16385	@ 0x4001
 8001224:	f001 f9a2 	bl	800256c <HAL_GPIO_WritePin>
 8001228:	e7d1      	b.n	80011ce <button_handle+0x92>

0800122a <NVIC_EncodePriority>:
  \param [in]       SubPriority  Subpriority value (starting from 0).
  \return                        Encoded priority. Value can be used in the function \ref NVIC_SetPriority().
 */
__STATIC_INLINE uint32_t NVIC_EncodePriority (uint32_t PriorityGroup, uint32_t PreemptPriority, uint32_t SubPriority)
{
  uint32_t PriorityGroupTmp = (PriorityGroup & (uint32_t)0x07UL);   /* only values 0..7 are used          */
 800122a:	f000 0007 	and.w	r0, r0, #7
  uint32_t PreemptPriorityBits;
  uint32_t SubPriorityBits;

  PreemptPriorityBits = ((7UL - PriorityGroupTmp) > (uint32_t)(__NVIC_PRIO_BITS)) ? (uint32_t)(__NVIC_PRIO_BITS) : (uint32_t)(7UL - PriorityGroupTmp);
 800122e:	f1c0 0c07 	rsb	ip, r0, #7
 8001232:	f1bc 0f04 	cmp.w	ip, #4
 8001236:	bf28      	it	cs
 8001238:	f04f 0c04 	movcs.w	ip, #4
  SubPriorityBits     = ((PriorityGroupTmp + (uint32_t)(__NVIC_PRIO_BITS)) < (uint32_t)7UL) ? (uint32_t)0UL : (uint32_t)((PriorityGroupTmp - 7UL) + (uint32_t)(__NVIC_PRIO_BITS));
 800123c:	1d03      	adds	r3, r0, #4
 800123e:	2b06      	cmp	r3, #6
 8001240:	bf8c      	ite	hi
 8001242:	1ec3      	subhi	r3, r0, #3
 8001244:	2300      	movls	r3, #0

  return (
           ((PreemptPriority & (uint32_t)((1UL << (PreemptPriorityBits)) - 1UL)) << SubPriorityBits) |
 8001246:	f04f 30ff 	mov.w	r0, #4294967295
 800124a:	fa00 fc0c 	lsl.w	ip, r0, ip
 800124e:	ea21 010c 	bic.w	r1, r1, ip
 8001252:	4099      	lsls	r1, r3
           ((SubPriority     & (uint32_t)((1UL << (SubPriorityBits    )) - 1UL)))
 8001254:	4098      	lsls	r0, r3
 8001256:	ea22 0000 	bic.w	r0, r2, r0
         );
}
 800125a:	4308      	orrs	r0, r1
 800125c:	4770      	bx	lr

0800125e <LL_ADC_SetChannelSamplingTime>:
{
 800125e:	b530      	push	{r4, r5, lr}
  uint32_t result;

#if ((defined (__ARM_ARCH_7M__      ) && (__ARM_ARCH_7M__      == 1)) || \
     (defined (__ARM_ARCH_7EM__     ) && (__ARM_ARCH_7EM__     == 1)) || \
     (defined (__ARM_ARCH_8M_MAIN__ ) && (__ARM_ARCH_8M_MAIN__ == 1))    )
   __ASM volatile ("rbit %0, %1" : "=r" (result) : "r" (value) );
 8001260:	f04f 7300 	mov.w	r3, #33554432	@ 0x2000000
 8001264:	fa93 f3a3 	rbit	r3, r3
  __IO uint32_t *preg = __ADC_PTR_REG_OFFSET(ADCx->SMPR1, __ADC_MASK_SHIFT(Channel, ADC_CHANNEL_SMPRX_REGOFFSET_MASK));
 8001268:	fab3 f383 	clz	r3, r3
 800126c:	f001 7e00 	and.w	lr, r1, #33554432	@ 0x2000000
 8001270:	fa2e fe03 	lsr.w	lr, lr, r3
 8001274:	300c      	adds	r0, #12
  MODIFY_REG(*preg,
 8001276:	f850 402e 	ldr.w	r4, [r0, lr, lsl #2]
 800127a:	f001 71f8 	and.w	r1, r1, #32505856	@ 0x1f00000
 800127e:	f04f 73f8 	mov.w	r3, #32505856	@ 0x1f00000
 8001282:	fa93 fca3 	rbit	ip, r3
 8001286:	fabc fc8c 	clz	ip, ip
 800128a:	fa93 f3a3 	rbit	r3, r3
 800128e:	fab3 f383 	clz	r3, r3
 8001292:	fa21 fc0c 	lsr.w	ip, r1, ip
 8001296:	2507      	movs	r5, #7
 8001298:	fa05 fc0c 	lsl.w	ip, r5, ip
 800129c:	ea24 0c0c 	bic.w	ip, r4, ip
 80012a0:	40d9      	lsrs	r1, r3
 80012a2:	408a      	lsls	r2, r1
 80012a4:	ea4c 0202 	orr.w	r2, ip, r2
 80012a8:	f840 202e 	str.w	r2, [r0, lr, lsl #2]
}
 80012ac:	bd30      	pop	{r4, r5, pc}

080012ae <SystemClock_Config>:
/**
  * @brief System Clock Configuration
  * @retval None
  */
void SystemClock_Config(void)
{
 80012ae:	b500      	push	{lr}
 80012b0:	b093      	sub	sp, #76	@ 0x4c
  RCC_OscInitTypeDef RCC_OscInitStruct = {0};
 80012b2:	2300      	movs	r3, #0
 80012b4:	930b      	str	r3, [sp, #44]	@ 0x2c
 80012b6:	930c      	str	r3, [sp, #48]	@ 0x30
 80012b8:	930d      	str	r3, [sp, #52]	@ 0x34
 80012ba:	930e      	str	r3, [sp, #56]	@ 0x38
 80012bc:	9311      	str	r3, [sp, #68]	@ 0x44
  RCC_ClkInitTypeDef RCC_ClkInitStruct = {0};
 80012be:	9303      	str	r3, [sp, #12]
 80012c0:	9304      	str	r3, [sp, #16]
 80012c2:	9305      	str	r3, [sp, #20]
 80012c4:	9306      	str	r3, [sp, #24]
 80012c6:	9307      	str	r3, [sp, #28]
  RCC_PeriphCLKInitTypeDef PeriphClkInit = {0};
 80012c8:	9300      	str	r3, [sp, #0]
 80012ca:	9301      	str	r3, [sp, #4]
 80012cc:	9302      	str	r3, [sp, #8]

  /** Initializes the RCC Oscillators according to the specified parameters
  * in the RCC_OscInitTypeDef structure.
  */
  RCC_OscInitStruct.OscillatorType = RCC_OSCILLATORTYPE_HSE;
 80012ce:	2201      	movs	r2, #1
 80012d0:	9208      	str	r2, [sp, #32]
  RCC_OscInitStruct.HSEState = RCC_HSE_ON;
 80012d2:	f44f 3380 	mov.w	r3, #65536	@ 0x10000
 80012d6:	9309      	str	r3, [sp, #36]	@ 0x24
  RCC_OscInitStruct.HSEPredivValue = RCC_HSE_PREDIV_DIV2;
 80012d8:	920a      	str	r2, [sp, #40]	@ 0x28
  RCC_OscInitStruct.PLL.PLLState = RCC_PLL_ON;
 80012da:	2202      	movs	r2, #2
 80012dc:	920f      	str	r2, [sp, #60]	@ 0x3c
  RCC_OscInitStruct.PLL.PLLSource = RCC_PLLSOURCE_HSE;
 80012de:	9310      	str	r3, [sp, #64]	@ 0x40
  RCC_OscInitStruct.PLL.PLLMUL = RCC_PLL_MUL2;
  if (HAL_RCC_OscConfig(&RCC_OscInitStruct) != HAL_OK)
 80012e0:	a808      	add	r0, sp, #32
 80012e2:	f001 fa32 	bl	800274a <HAL_RCC_OscConfig>
 80012e6:	b9c0      	cbnz	r0, 800131a <SystemClock_Config+0x6c>
    Error_Handler();
  }

  /** Initializes the CPU, AHB and APB buses clocks
  */
  RCC_ClkInitStruct.ClockType = RCC_CLOCKTYPE_HCLK|RCC_CLOCKTYPE_SYSCLK
 80012e8:	230f      	movs	r3, #15
 80012ea:	9303      	str	r3, [sp, #12]
                              |RCC_CLOCKTYPE_PCLK1|RCC_CLOCKTYPE_PCLK2;
  RCC_ClkInitStruct.SYSCLKSource = RCC_SYSCLKSOURCE_PLLCLK;
 80012ec:	2302      	movs	r3, #2
 80012ee:	9304      	str	r3, [sp, #16]
  RCC_ClkInitStruct.AHBCLKDivider = RCC_SYSCLK_DIV1;
 80012f0:	2100      	movs	r1, #0
 80012f2:	9105      	str	r1, [sp, #20]
  RCC_ClkInitStruct.APB1CLKDivider = RCC_HCLK_DIV1;
 80012f4:	9106      	str	r1, [sp, #24]
  RCC_ClkInitStruct.APB2CLKDivider = RCC_HCLK_DIV1;
 80012f6:	9107      	str	r1, [sp, #28]

  if (HAL_RCC_ClockConfig(&RCC_ClkInitStruct, FLASH_LATENCY_0) != HAL_OK)
 80012f8:	a803      	add	r0, sp, #12
 80012fa:	f001 fcf2 	bl	8002ce2 <HAL_RCC_ClockConfig>
 80012fe:	b970      	cbnz	r0, 800131e <SystemClock_Config+0x70>
  {
    Error_Handler();
  }
  PeriphClkInit.PeriphClockSelection = RCC_PERIPHCLK_ADC;
 8001300:	2302      	movs	r3, #2
 8001302:	9300      	str	r3, [sp, #0]
  PeriphClkInit.AdcClockSelection = RCC_ADCPCLK2_DIV2;
 8001304:	2300      	movs	r3, #0
 8001306:	9302      	str	r3, [sp, #8]
  if (HAL_RCCEx_PeriphCLKConfig(&PeriphClkInit) != HAL_OK)
 8001308:	4668      	mov	r0, sp
 800130a:	f001 fdd1 	bl	8002eb0 <HAL_RCCEx_PeriphCLKConfig>
 800130e:	b940      	cbnz	r0, 8001322 <SystemClock_Config+0x74>
    Error_Handler();
  }

  /** Enables the Clock Security System
  */
  HAL_RCC_EnableCSS();
 8001310:	f001 fca6 	bl	8002c60 <HAL_RCC_EnableCSS>
}
 8001314:	b013      	add	sp, #76	@ 0x4c
 8001316:	f85d fb04 	ldr.w	pc, [sp], #4
  __ASM volatile ("cpsid i" : : : "memory");
 800131a:	b672      	cpsid	i
void Error_Handler(void)
{
  /* USER CODE BEGIN Error_Handler_Debug */
  /* User can add his own implementation to report the HAL error return state */
  __disable_irq();
  while (1)
 800131c:	e7fe      	b.n	800131c <SystemClock_Config+0x6e>
 800131e:	b672      	cpsid	i
 8001320:	e7fe      	b.n	8001320 <SystemClock_Config+0x72>
 8001322:	b672      	cpsid	i
 8001324:	e7fe      	b.n	8001324 <SystemClock_Config+0x76>
	...

08001328 <main>:
{
 8001328:	e92d 4880 	stmdb	sp!, {r7, fp, lr}
 800132c:	b095      	sub	sp, #84	@ 0x54
  HAL_Init();
 800132e:	f000 fea0 	bl	8002072 <HAL_Init>
  SystemClock_Config();
 8001332:	f7ff ffbc 	bl	80012ae <SystemClock_Config>
  GPIO_InitTypeDef GPIO_InitStruct = {0};
 8001336:	2400      	movs	r4, #0
 8001338:	940f      	str	r4, [sp, #60]	@ 0x3c
 800133a:	9410      	str	r4, [sp, #64]	@ 0x40
 800133c:	9411      	str	r4, [sp, #68]	@ 0x44
 800133e:	9412      	str	r4, [sp, #72]	@ 0x48
  __HAL_RCC_GPIOC_CLK_ENABLE();
 8001340:	f44f 5580 	mov.w	r5, #4096	@ 0x1000
 8001344:	f2c4 0502 	movt	r5, #16386	@ 0x4002
 8001348:	69ab      	ldr	r3, [r5, #24]
 800134a:	f043 0310 	orr.w	r3, r3, #16
 800134e:	61ab      	str	r3, [r5, #24]
 8001350:	69ab      	ldr	r3, [r5, #24]
 8001352:	f003 0310 	and.w	r3, r3, #16
 8001356:	9304      	str	r3, [sp, #16]
 8001358:	9b04      	ldr	r3, [sp, #16]
  __HAL_RCC_GPIOD_CLK_ENABLE();
 800135a:	69ab      	ldr	r3, [r5, #24]
 800135c:	f043 0320 	orr.w	r3, r3, #32
 8001360:	61ab      	str	r3, [r5, #24]
 8001362:	69ab      	ldr	r3, [r5, #24]
 8001364:	f003 0320 	and.w	r3, r3, #32
 8001368:	9305      	str	r3, [sp, #20]
 800136a:	9b05      	ldr	r3, [sp, #20]
  __HAL_RCC_GPIOA_CLK_ENABLE();
 800136c:	69ab      	ldr	r3, [r5, #24]
 800136e:	f043 0304 	orr.w	r3, r3, #4
 8001372:	61ab      	str	r3, [r5, #24]
 8001374:	69ab      	ldr	r3, [r5, #24]
 8001376:	f003 0304 	and.w	r3, r3, #4
 800137a:	9306      	str	r3, [sp, #24]
 800137c:	9b06      	ldr	r3, [sp, #24]
  __HAL_RCC_GPIOB_CLK_ENABLE();
 800137e:	69ab      	ldr	r3, [r5, #24]
 8001380:	f043 0308 	orr.w	r3, r3, #8
 8001384:	61ab      	str	r3, [r5, #24]
 8001386:	69ab      	ldr	r3, [r5, #24]
 8001388:	f003 0308 	and.w	r3, r3, #8
 800138c:	9307      	str	r3, [sp, #28]
 800138e:	9b07      	ldr	r3, [sp, #28]
  HAL_GPIO_WritePin(GPIOC, SHUTDOWN1_Pin|SHUTDOWN2_Pin|BUZZER_Pin, GPIO_PIN_RESET);
 8001390:	f44f 5b80 	mov.w	fp, #4096	@ 0x1000
 8001394:	f2c4 0b01 	movt	fp, #16385	@ 0x4001
 8001398:	4622      	mov	r2, r4
 800139a:	f44f 4160 	mov.w	r1, #57344	@ 0xe000
 800139e:	4658      	mov	r0, fp
 80013a0:	f001 f8e4 	bl	800256c <HAL_GPIO_WritePin>
  HAL_GPIO_WritePin(LED_GPIO_Port, LED_Pin, GPIO_PIN_SET);
 80013a4:	f44f 6800 	mov.w	r8, #2048	@ 0x800
 80013a8:	f2c4 0801 	movt	r8, #16385	@ 0x4001
 80013ac:	2201      	movs	r2, #1
 80013ae:	2108      	movs	r1, #8
 80013b0:	4640      	mov	r0, r8
 80013b2:	f001 f8db 	bl	800256c <HAL_GPIO_WritePin>
  HAL_GPIO_WritePin(GPIOB, LCD_BL_Pin|LCD_RS_Pin|LCD_E_Pin|RTS_Pin, GPIO_PIN_RESET);
 80013b6:	f44f 6940 	mov.w	r9, #3072	@ 0xc00
 80013ba:	f2c4 0901 	movt	r9, #16385	@ 0x4001
 80013be:	4622      	mov	r2, r4
 80013c0:	f248 0138 	movw	r1, #32824	@ 0x8038
 80013c4:	4648      	mov	r0, r9
 80013c6:	f001 f8d1 	bl	800256c <HAL_GPIO_WritePin>
  HAL_GPIO_WritePin(GPIOA, LCD_D2_Pin|LCD_D3_Pin|LCD_D1_Pin|LCD_D0_Pin, GPIO_PIN_RESET);
 80013ca:	4622      	mov	r2, r4
 80013cc:	f44f 51f0 	mov.w	r1, #7680	@ 0x1e00
 80013d0:	4640      	mov	r0, r8
 80013d2:	f001 f8cb 	bl	800256c <HAL_GPIO_WritePin>
  GPIO_InitStruct.Pin = SHUTDOWN1_Pin|SHUTDOWN2_Pin|BUZZER_Pin;
 80013d6:	f44f 4760 	mov.w	r7, #57344	@ 0xe000
 80013da:	970f      	str	r7, [sp, #60]	@ 0x3c
  GPIO_InitStruct.Mode = GPIO_MODE_OUTPUT_PP;
 80013dc:	f04f 0a01 	mov.w	sl, #1
 80013e0:	f8cd a040 	str.w	sl, [sp, #64]	@ 0x40
  GPIO_InitStruct.Pull = GPIO_NOPULL;
 80013e4:	9411      	str	r4, [sp, #68]	@ 0x44
  GPIO_InitStruct.Speed = GPIO_SPEED_FREQ_LOW;
 80013e6:	2602      	movs	r6, #2
 80013e8:	9612      	str	r6, [sp, #72]	@ 0x48
  HAL_GPIO_Init(GPIOC, &GPIO_InitStruct);
 80013ea:	a90f      	add	r1, sp, #60	@ 0x3c
 80013ec:	4658      	mov	r0, fp
 80013ee:	f000 ff73 	bl	80022d8 <HAL_GPIO_Init>
  GPIO_InitStruct.Pin = LED_Pin|LCD_D2_Pin|LCD_D3_Pin|LCD_D1_Pin
 80013f2:	f641 6308 	movw	r3, #7688	@ 0x1e08
 80013f6:	930f      	str	r3, [sp, #60]	@ 0x3c
  GPIO_InitStruct.Mode = GPIO_MODE_OUTPUT_PP;
 80013f8:	f8cd a040 	str.w	sl, [sp, #64]	@ 0x40
  GPIO_InitStruct.Pull = GPIO_NOPULL;
 80013fc:	9411      	str	r4, [sp, #68]	@ 0x44
  GPIO_InitStruct.Speed = GPIO_SPEED_FREQ_LOW;
 80013fe:	9612      	str	r6, [sp, #72]	@ 0x48
  HAL_GPIO_Init(GPIOA, &GPIO_InitStruct);
 8001400:	a90f      	add	r1, sp, #60	@ 0x3c
 8001402:	4640      	mov	r0, r8
 8001404:	f000 ff68 	bl	80022d8 <HAL_GPIO_Init>
  GPIO_InitStruct.Pin = B6_Pin|B5_Pin|B4_Pin|B1_Pin
 8001408:	f647 4304 	movw	r3, #31748	@ 0x7c04
 800140c:	930f      	str	r3, [sp, #60]	@ 0x3c
  GPIO_InitStruct.Mode = GPIO_MODE_IT_RISING;
 800140e:	4623      	mov	r3, r4
 8001410:	f2c1 0311 	movt	r3, #4113	@ 0x1011
 8001414:	9310      	str	r3, [sp, #64]	@ 0x40
  GPIO_InitStruct.Pull = GPIO_NOPULL;
 8001416:	9411      	str	r4, [sp, #68]	@ 0x44
  HAL_GPIO_Init(GPIOB, &GPIO_InitStruct);
 8001418:	a90f      	add	r1, sp, #60	@ 0x3c
 800141a:	4648      	mov	r0, r9
 800141c:	f000 ff5c 	bl	80022d8 <HAL_GPIO_Init>
  GPIO_InitStruct.Pin = LCD_BL_Pin|LCD_RS_Pin|LCD_E_Pin|RTS_Pin;
 8001420:	f248 0338 	movw	r3, #32824	@ 0x8038
 8001424:	930f      	str	r3, [sp, #60]	@ 0x3c
  GPIO_InitStruct.Mode = GPIO_MODE_OUTPUT_PP;
 8001426:	f8cd a040 	str.w	sl, [sp, #64]	@ 0x40
  GPIO_InitStruct.Pull = GPIO_NOPULL;
 800142a:	9411      	str	r4, [sp, #68]	@ 0x44
  GPIO_InitStruct.Speed = GPIO_SPEED_FREQ_LOW;
 800142c:	9612      	str	r6, [sp, #72]	@ 0x48
  HAL_GPIO_Init(GPIOB, &GPIO_InitStruct);
 800142e:	a90f      	add	r1, sp, #60	@ 0x3c
 8001430:	4648      	mov	r0, r9
 8001432:	f000 ff51 	bl	80022d8 <HAL_GPIO_Init>
  GPIO_InitStruct.Pin = GPIO_PIN_8|GPIO_PIN_15;
 8001436:	f44f 4301 	mov.w	r3, #33024	@ 0x8100
 800143a:	930f      	str	r3, [sp, #60]	@ 0x3c
  GPIO_InitStruct.Mode = GPIO_MODE_AF_PP;
 800143c:	9610      	str	r6, [sp, #64]	@ 0x40
  GPIO_InitStruct.Speed = GPIO_SPEED_FREQ_LOW;
 800143e:	9612      	str	r6, [sp, #72]	@ 0x48
  HAL_GPIO_Init(GPIOA, &GPIO_InitStruct);
 8001440:	a90f      	add	r1, sp, #60	@ 0x3c
 8001442:	4640      	mov	r0, r8
 8001444:	f000 ff48 	bl	80022d8 <HAL_GPIO_Init>
  __HAL_AFIO_REMAP_TIM2_PARTIAL_1();
 8001448:	4622      	mov	r2, r4
 800144a:	f2c4 0201 	movt	r2, #16385	@ 0x4001
 800144e:	6853      	ldr	r3, [r2, #4]
 8001450:	f423 7340 	bic.w	r3, r3, #768	@ 0x300
 8001454:	f043 63e0 	orr.w	r3, r3, #117440512	@ 0x7000000
 8001458:	f443 7380 	orr.w	r3, r3, #256	@ 0x100
 800145c:	6053      	str	r3, [r2, #4]
  HAL_NVIC_SetPriority(EXTI2_IRQn, 15, 0);
 800145e:	4622      	mov	r2, r4
 8001460:	210f      	movs	r1, #15
 8001462:	2008      	movs	r0, #8
 8001464:	f000 fe4a 	bl	80020fc <HAL_NVIC_SetPriority>
  HAL_NVIC_EnableIRQ(EXTI2_IRQn);
 8001468:	2008      	movs	r0, #8
 800146a:	f000 fe80 	bl	800216e <HAL_NVIC_EnableIRQ>
  HAL_NVIC_SetPriority(EXTI15_10_IRQn, 15, 0);
 800146e:	4622      	mov	r2, r4
 8001470:	210f      	movs	r1, #15
 8001472:	2028      	movs	r0, #40	@ 0x28
 8001474:	f000 fe42 	bl	80020fc <HAL_NVIC_SetPriority>
  HAL_NVIC_EnableIRQ(EXTI15_10_IRQn);
 8001478:	2028      	movs	r0, #40	@ 0x28
 800147a:	f000 fe78 	bl	800216e <HAL_NVIC_EnableIRQ>
  * @retval None
*/
__STATIC_INLINE void LL_AHB1_GRP1_EnableClock(uint32_t Periphs)
{
  __IO uint32_t tmpreg;
  SET_BIT(RCC->AHBENR, Periphs);
 800147e:	696b      	ldr	r3, [r5, #20]
 8001480:	ea43 030a 	orr.w	r3, r3, sl
 8001484:	616b      	str	r3, [r5, #20]
  /* Delay after an RCC peripheral clock enabling */
  tmpreg = READ_BIT(RCC->AHBENR, Periphs);
 8001486:	696b      	ldr	r3, [r5, #20]
 8001488:	ea03 030a 	and.w	r3, r3, sl
 800148c:	9303      	str	r3, [sp, #12]
  (void)tmpreg;
 800148e:	9b03      	ldr	r3, [sp, #12]
  return ((uint32_t)((SCB->AIRCR & SCB_AIRCR_PRIGROUP_Msk) >> SCB_AIRCR_PRIGROUP_Pos));
 8001490:	f44f 436d 	mov.w	r3, #60672	@ 0xed00
 8001494:	f367 431f 	bfi	r3, r7, #16, #16
 8001498:	68d8      	ldr	r0, [r3, #12]
  NVIC_SetPriority(DMA1_Channel1_IRQn, NVIC_EncodePriority(NVIC_GetPriorityGrouping(),0, 0));
 800149a:	4622      	mov	r2, r4
 800149c:	4621      	mov	r1, r4
 800149e:	f3c0 2002 	ubfx	r0, r0, #8, #3
 80014a2:	f7ff fec2 	bl	800122a <NVIC_EncodePriority>
    NVIC->IP[((uint32_t)IRQn)]               = (uint8_t)((priority << (8U - __NVIC_PRIO_BITS)) & (uint32_t)0xFFUL);
 80014a6:	0103      	lsls	r3, r0, #4
 80014a8:	b2db      	uxtb	r3, r3
 80014aa:	f44f 4261 	mov.w	r2, #57600	@ 0xe100
 80014ae:	f367 421f 	bfi	r2, r7, #16, #16
 80014b2:	f882 330b 	strb.w	r3, [r2, #779]	@ 0x30b
    NVIC->ISER[(((uint32_t)IRQn) >> 5UL)] = (uint32_t)(1UL << (((uint32_t)IRQn) & 0x1FUL));
 80014b6:	f44f 4361 	mov.w	r3, #57600	@ 0xe100
 80014ba:	f367 431f 	bfi	r3, r7, #16, #16
 80014be:	f44f 6200 	mov.w	r2, #2048	@ 0x800
 80014c2:	601a      	str	r2, [r3, #0]
  LL_ADC_InitTypeDef ADC_InitStruct = {0};
 80014c4:	9408      	str	r4, [sp, #32]
 80014c6:	9409      	str	r4, [sp, #36]	@ 0x24
  LL_ADC_REG_InitTypeDef ADC_REG_InitStruct = {0};
 80014c8:	940a      	str	r4, [sp, #40]	@ 0x28
 80014ca:	940b      	str	r4, [sp, #44]	@ 0x2c
 80014cc:	940c      	str	r4, [sp, #48]	@ 0x30
 80014ce:	940d      	str	r4, [sp, #52]	@ 0x34
 80014d0:	940e      	str	r4, [sp, #56]	@ 0x38
  LL_GPIO_InitTypeDef GPIO_InitStruct = {0};
 80014d2:	9410      	str	r4, [sp, #64]	@ 0x40
 80014d4:	9411      	str	r4, [sp, #68]	@ 0x44
 80014d6:	9412      	str	r4, [sp, #72]	@ 0x48
 80014d8:	9413      	str	r4, [sp, #76]	@ 0x4c
  * @retval None
*/
__STATIC_INLINE void LL_APB2_GRP1_EnableClock(uint32_t Periphs)
{
  __IO uint32_t tmpreg;
  SET_BIT(RCC->APB2ENR, Periphs);
 80014da:	69ab      	ldr	r3, [r5, #24]
 80014dc:	f443 7300 	orr.w	r3, r3, #512	@ 0x200
 80014e0:	61ab      	str	r3, [r5, #24]
  /* Delay after an RCC peripheral clock enabling */
  tmpreg = READ_BIT(RCC->APB2ENR, Periphs);
 80014e2:	69ab      	ldr	r3, [r5, #24]
 80014e4:	f403 7300 	and.w	r3, r3, #512	@ 0x200
 80014e8:	9300      	str	r3, [sp, #0]
  (void)tmpreg;
 80014ea:	9b00      	ldr	r3, [sp, #0]
  SET_BIT(RCC->APB2ENR, Periphs);
 80014ec:	69ab      	ldr	r3, [r5, #24]
 80014ee:	f043 0304 	orr.w	r3, r3, #4
 80014f2:	61ab      	str	r3, [r5, #24]
  tmpreg = READ_BIT(RCC->APB2ENR, Periphs);
 80014f4:	69ab      	ldr	r3, [r5, #24]
 80014f6:	f003 0304 	and.w	r3, r3, #4
 80014fa:	9301      	str	r3, [sp, #4]
  (void)tmpreg;
 80014fc:	9b01      	ldr	r3, [sp, #4]
  SET_BIT(RCC->APB2ENR, Periphs);
 80014fe:	69ab      	ldr	r3, [r5, #24]
 8001500:	f043 0308 	orr.w	r3, r3, #8
 8001504:	61ab      	str	r3, [r5, #24]
  tmpreg = READ_BIT(RCC->APB2ENR, Periphs);
 8001506:	69ab      	ldr	r3, [r5, #24]
 8001508:	f003 0308 	and.w	r3, r3, #8
 800150c:	9302      	str	r3, [sp, #8]
  (void)tmpreg;
 800150e:	9b02      	ldr	r3, [sp, #8]
  GPIO_InitStruct.Pin = LL_GPIO_PIN_0|LL_GPIO_PIN_1|LL_GPIO_PIN_2|LL_GPIO_PIN_6
 8001510:	f24c 73c7 	movw	r3, #51143	@ 0xc7c7
 8001514:	930f      	str	r3, [sp, #60]	@ 0x3c
  LL_GPIO_Init(GPIOA, &GPIO_InitStruct);
 8001516:	a90f      	add	r1, sp, #60	@ 0x3c
 8001518:	4640      	mov	r0, r8
 800151a:	f002 f968 	bl	80037ee <LL_GPIO_Init>
  GPIO_InitStruct.Pin = LL_GPIO_PIN_0|LL_GPIO_PIN_1;
 800151e:	f240 3303 	movw	r3, #771	@ 0x303
 8001522:	930f      	str	r3, [sp, #60]	@ 0x3c
  GPIO_InitStruct.Mode = LL_GPIO_MODE_ANALOG;
 8001524:	9410      	str	r4, [sp, #64]	@ 0x40
  LL_GPIO_Init(GPIOB, &GPIO_InitStruct);
 8001526:	a90f      	add	r1, sp, #60	@ 0x3c
 8001528:	4648      	mov	r0, r9
 800152a:	f002 f960 	bl	80037ee <LL_GPIO_Init>
  MODIFY_REG(((DMA_Channel_TypeDef *)((uint32_t)((uint32_t)DMAx + CHANNEL_OFFSET_TAB[Channel - 1U])))->CCR,
 800152e:	4623      	mov	r3, r4
 8001530:	f2c4 0302 	movt	r3, #16386	@ 0x4002
 8001534:	689a      	ldr	r2, [r3, #8]
 8001536:	f422 4280 	bic.w	r2, r2, #16384	@ 0x4000
 800153a:	f022 0210 	bic.w	r2, r2, #16
 800153e:	609a      	str	r2, [r3, #8]
  MODIFY_REG(((DMA_Channel_TypeDef *)((uint32_t)((uint32_t)DMAx + CHANNEL_OFFSET_TAB[Channel - 1U])))->CCR, DMA_CCR_PL,
 8001540:	689a      	ldr	r2, [r3, #8]
 8001542:	f442 5240 	orr.w	r2, r2, #12288	@ 0x3000
 8001546:	609a      	str	r2, [r3, #8]
  MODIFY_REG(((DMA_Channel_TypeDef *)((uint32_t)((uint32_t)DMAx + CHANNEL_OFFSET_TAB[Channel - 1U])))->CCR, DMA_CCR_CIRC,
 8001548:	689a      	ldr	r2, [r3, #8]
 800154a:	f042 0220 	orr.w	r2, r2, #32
 800154e:	609a      	str	r2, [r3, #8]
  MODIFY_REG(((DMA_Channel_TypeDef *)((uint32_t)((uint32_t)DMAx + CHANNEL_OFFSET_TAB[Channel - 1U])))->CCR, DMA_CCR_PINC,
 8001550:	689a      	ldr	r2, [r3, #8]
 8001552:	f022 0240 	bic.w	r2, r2, #64	@ 0x40
 8001556:	609a      	str	r2, [r3, #8]
  MODIFY_REG(((DMA_Channel_TypeDef *)((uint32_t)((uint32_t)DMAx + CHANNEL_OFFSET_TAB[Channel - 1U])))->CCR, DMA_CCR_MINC,
 8001558:	689a      	ldr	r2, [r3, #8]
 800155a:	f042 0280 	orr.w	r2, r2, #128	@ 0x80
 800155e:	609a      	str	r2, [r3, #8]
  MODIFY_REG(((DMA_Channel_TypeDef *)((uint32_t)((uint32_t)DMAx + CHANNEL_OFFSET_TAB[Channel - 1U])))->CCR, DMA_CCR_PSIZE,
 8001560:	689a      	ldr	r2, [r3, #8]
 8001562:	f422 7240 	bic.w	r2, r2, #768	@ 0x300
 8001566:	f442 7280 	orr.w	r2, r2, #256	@ 0x100
 800156a:	609a      	str	r2, [r3, #8]
  MODIFY_REG(((DMA_Channel_TypeDef *)((uint32_t)((uint32_t)DMAx + CHANNEL_OFFSET_TAB[Channel - 1U])))->CCR, DMA_CCR_MSIZE,
 800156c:	689a      	ldr	r2, [r3, #8]
 800156e:	f422 6240 	bic.w	r2, r2, #3072	@ 0xc00
 8001572:	f442 6280 	orr.w	r2, r2, #1024	@ 0x400
 8001576:	609a      	str	r2, [r3, #8]
  return ((uint32_t)((SCB->AIRCR & SCB_AIRCR_PRIGROUP_Msk) >> SCB_AIRCR_PRIGROUP_Pos));
 8001578:	f44f 436d 	mov.w	r3, #60672	@ 0xed00
 800157c:	f367 431f 	bfi	r3, r7, #16, #16
 8001580:	68d8      	ldr	r0, [r3, #12]
  NVIC_SetPriority(ADC1_IRQn, NVIC_EncodePriority(NVIC_GetPriorityGrouping(),0, 0));
 8001582:	4622      	mov	r2, r4
 8001584:	4621      	mov	r1, r4
 8001586:	f3c0 2002 	ubfx	r0, r0, #8, #3
 800158a:	f7ff fe4e 	bl	800122a <NVIC_EncodePriority>
    NVIC->IP[((uint32_t)IRQn)]               = (uint8_t)((priority << (8U - __NVIC_PRIO_BITS)) & (uint32_t)0xFFUL);
 800158e:	0103      	lsls	r3, r0, #4
 8001590:	b2db      	uxtb	r3, r3
 8001592:	f44f 4261 	mov.w	r2, #57600	@ 0xe100
 8001596:	f367 421f 	bfi	r2, r7, #16, #16
 800159a:	f882 3312 	strb.w	r3, [r2, #786]	@ 0x312
    NVIC->ISER[(((uint32_t)IRQn) >> 5UL)] = (uint32_t)(1UL << (((uint32_t)IRQn) & 0x1FUL));
 800159e:	f44f 4361 	mov.w	r3, #57600	@ 0xe100
 80015a2:	f367 431f 	bfi	r3, r7, #16, #16
 80015a6:	f44f 2280 	mov.w	r2, #262144	@ 0x40000
 80015aa:	601a      	str	r2, [r3, #0]
  ADC_InitStruct.DataAlignment = LL_ADC_DATA_ALIGN_RIGHT;
 80015ac:	9408      	str	r4, [sp, #32]
  ADC_InitStruct.SequencersScanMode = LL_ADC_SEQ_SCAN_ENABLE;
 80015ae:	f44f 7980 	mov.w	r9, #256	@ 0x100
 80015b2:	f8cd 9024 	str.w	r9, [sp, #36]	@ 0x24
  LL_ADC_Init(ADC1, &ADC_InitStruct);
 80015b6:	f44f 5810 	mov.w	r8, #9216	@ 0x2400
 80015ba:	f2c4 0801 	movt	r8, #16385	@ 0x4001
 80015be:	a908      	add	r1, sp, #32
 80015c0:	4640      	mov	r0, r8
 80015c2:	f002 f8d8 	bl	8003776 <LL_ADC_Init>
  ADC_REG_InitStruct.TriggerSource = LL_ADC_REG_TRIG_EXT_TIM3_TRGO;
 80015c6:	f44f 2300 	mov.w	r3, #524288	@ 0x80000
 80015ca:	930a      	str	r3, [sp, #40]	@ 0x28
  ADC_REG_InitStruct.SequencerLength = LL_ADC_REG_SEQ_SCAN_ENABLE_7RANKS;
 80015cc:	f44f 03c0 	mov.w	r3, #6291456	@ 0x600000
 80015d0:	930b      	str	r3, [sp, #44]	@ 0x2c
  ADC_REG_InitStruct.SequencerDiscont = LL_ADC_REG_SEQ_DISCONT_DISABLE;
 80015d2:	940c      	str	r4, [sp, #48]	@ 0x30
  ADC_REG_InitStruct.ContinuousMode = LL_ADC_REG_CONV_SINGLE;
 80015d4:	940d      	str	r4, [sp, #52]	@ 0x34
  ADC_REG_InitStruct.DMATransfer = LL_ADC_REG_DMA_TRANSFER_UNLIMITED;
 80015d6:	f8cd 9038 	str.w	r9, [sp, #56]	@ 0x38
  LL_ADC_REG_Init(ADC1, &ADC_REG_InitStruct);
 80015da:	a90a      	add	r1, sp, #40	@ 0x28
 80015dc:	4640      	mov	r0, r8
 80015de:	f002 f8de 	bl	800379e <LL_ADC_REG_Init>
   __ASM volatile ("rbit %0, %1" : "=r" (result) : "r" (value) );
 80015e2:	f44f 7740 	mov.w	r7, #768	@ 0x300
 80015e6:	fa97 f3a7 	rbit	r3, r7
  __IO uint32_t *preg = __ADC_PTR_REG_OFFSET(ADCx->SQR1, __ADC_MASK_SHIFT(Rank, ADC_REG_SQRX_REGOFFSET_MASK));
 80015ea:	fab3 f383 	clz	r3, r3
 80015ee:	f44f 7a00 	mov.w	sl, #512	@ 0x200
 80015f2:	fa2a f303 	lsr.w	r3, sl, r3
 80015f6:	f242 452c 	movw	r5, #9260	@ 0x242c
 80015fa:	f2c4 0501 	movt	r5, #16385	@ 0x4001
  MODIFY_REG(*preg,
 80015fe:	f855 2023 	ldr.w	r2, [r5, r3, lsl #2]
 8001602:	f022 021f 	bic.w	r2, r2, #31
 8001606:	f845 2023 	str.w	r2, [r5, r3, lsl #2]
  LL_ADC_SetChannelSamplingTime(ADC1, LL_ADC_CHANNEL_0, LL_ADC_SAMPLINGTIME_13CYCLES_5);
 800160a:	4632      	mov	r2, r6
 800160c:	f04f 7100 	mov.w	r1, #33554432	@ 0x2000000
 8001610:	4640      	mov	r0, r8
 8001612:	f7ff fe24 	bl	800125e <LL_ADC_SetChannelSamplingTime>
 8001616:	fa97 f3a7 	rbit	r3, r7
  __IO uint32_t *preg = __ADC_PTR_REG_OFFSET(ADCx->SQR1, __ADC_MASK_SHIFT(Rank, ADC_REG_SQRX_REGOFFSET_MASK));
 800161a:	fab3 f383 	clz	r3, r3
 800161e:	fa2a f303 	lsr.w	r3, sl, r3
  MODIFY_REG(*preg,
 8001622:	f855 2023 	ldr.w	r2, [r5, r3, lsl #2]
 8001626:	f422 7278 	bic.w	r2, r2, #992	@ 0x3e0
 800162a:	f042 0220 	orr.w	r2, r2, #32
 800162e:	f845 2023 	str.w	r2, [r5, r3, lsl #2]
  LL_ADC_SetChannelSamplingTime(ADC1, LL_ADC_CHANNEL_1, LL_ADC_SAMPLINGTIME_13CYCLES_5);
 8001632:	4632      	mov	r2, r6
 8001634:	2101      	movs	r1, #1
 8001636:	f2c0 2130 	movt	r1, #560	@ 0x230
 800163a:	4640      	mov	r0, r8
 800163c:	f7ff fe0f 	bl	800125e <LL_ADC_SetChannelSamplingTime>
 8001640:	fa97 f3a7 	rbit	r3, r7
  __IO uint32_t *preg = __ADC_PTR_REG_OFFSET(ADCx->SQR1, __ADC_MASK_SHIFT(Rank, ADC_REG_SQRX_REGOFFSET_MASK));
 8001644:	fab3 f383 	clz	r3, r3
 8001648:	fa2a f303 	lsr.w	r3, sl, r3
  MODIFY_REG(*preg,
 800164c:	f855 2023 	ldr.w	r2, [r5, r3, lsl #2]
 8001650:	f422 42f8 	bic.w	r2, r2, #31744	@ 0x7c00
 8001654:	f442 6200 	orr.w	r2, r2, #2048	@ 0x800
 8001658:	f845 2023 	str.w	r2, [r5, r3, lsl #2]
  LL_ADC_SetChannelSamplingTime(ADC1, LL_ADC_CHANNEL_2, LL_ADC_SAMPLINGTIME_13CYCLES_5);
 800165c:	4632      	mov	r2, r6
 800165e:	4631      	mov	r1, r6
 8001660:	f2c0 2160 	movt	r1, #608	@ 0x260
 8001664:	4640      	mov	r0, r8
 8001666:	f7ff fdfa 	bl	800125e <LL_ADC_SetChannelSamplingTime>
 800166a:	fa97 f3a7 	rbit	r3, r7
  __IO uint32_t *preg = __ADC_PTR_REG_OFFSET(ADCx->SQR1, __ADC_MASK_SHIFT(Rank, ADC_REG_SQRX_REGOFFSET_MASK));
 800166e:	fab3 f383 	clz	r3, r3
 8001672:	fa2a f303 	lsr.w	r3, sl, r3
  MODIFY_REG(*preg,
 8001676:	f855 2023 	ldr.w	r2, [r5, r3, lsl #2]
 800167a:	f422 2278 	bic.w	r2, r2, #1015808	@ 0xf8000
 800167e:	f442 3240 	orr.w	r2, r2, #196608	@ 0x30000
 8001682:	f845 2023 	str.w	r2, [r5, r3, lsl #2]
  LL_ADC_SetChannelSamplingTime(ADC1, LL_ADC_CHANNEL_6, LL_ADC_SAMPLINGTIME_13CYCLES_5);
 8001686:	4632      	mov	r2, r6
 8001688:	2106      	movs	r1, #6
 800168a:	f2c0 3120 	movt	r1, #800	@ 0x320
 800168e:	4640      	mov	r0, r8
 8001690:	f7ff fde5 	bl	800125e <LL_ADC_SetChannelSamplingTime>
 8001694:	fa97 f3a7 	rbit	r3, r7
  __IO uint32_t *preg = __ADC_PTR_REG_OFFSET(ADCx->SQR1, __ADC_MASK_SHIFT(Rank, ADC_REG_SQRX_REGOFFSET_MASK));
 8001698:	fab3 f383 	clz	r3, r3
 800169c:	fa2a f303 	lsr.w	r3, sl, r3
  MODIFY_REG(*preg,
 80016a0:	f855 2023 	ldr.w	r2, [r5, r3, lsl #2]
 80016a4:	f022 72f8 	bic.w	r2, r2, #32505856	@ 0x1f00000
 80016a8:	f442 02e0 	orr.w	r2, r2, #7340032	@ 0x700000
 80016ac:	f845 2023 	str.w	r2, [r5, r3, lsl #2]
  LL_ADC_SetChannelSamplingTime(ADC1, LL_ADC_CHANNEL_7, LL_ADC_SAMPLINGTIME_13CYCLES_5);
 80016b0:	4632      	mov	r2, r6
 80016b2:	2107      	movs	r1, #7
 80016b4:	f2c0 3150 	movt	r1, #848	@ 0x350
 80016b8:	4640      	mov	r0, r8
 80016ba:	f7ff fdd0 	bl	800125e <LL_ADC_SetChannelSamplingTime>
 80016be:	fa97 f3a7 	rbit	r3, r7
  __IO uint32_t *preg = __ADC_PTR_REG_OFFSET(ADCx->SQR1, __ADC_MASK_SHIFT(Rank, ADC_REG_SQRX_REGOFFSET_MASK));
 80016c2:	fab3 f383 	clz	r3, r3
 80016c6:	fa2a fa03 	lsr.w	sl, sl, r3
  MODIFY_REG(*preg,
 80016ca:	f855 302a 	ldr.w	r3, [r5, sl, lsl #2]
 80016ce:	f023 5378 	bic.w	r3, r3, #1040187392	@ 0x3e000000
 80016d2:	f043 5380 	orr.w	r3, r3, #268435456	@ 0x10000000
 80016d6:	f845 302a 	str.w	r3, [r5, sl, lsl #2]
  LL_ADC_SetChannelSamplingTime(ADC1, LL_ADC_CHANNEL_8, LL_ADC_SAMPLINGTIME_13CYCLES_5);
 80016da:	4632      	mov	r2, r6
 80016dc:	2108      	movs	r1, #8
 80016de:	f2c0 3180 	movt	r1, #896	@ 0x380
 80016e2:	4640      	mov	r0, r8
 80016e4:	f7ff fdbb 	bl	800125e <LL_ADC_SetChannelSamplingTime>
 80016e8:	fa97 f3a7 	rbit	r3, r7
  __IO uint32_t *preg = __ADC_PTR_REG_OFFSET(ADCx->SQR1, __ADC_MASK_SHIFT(Rank, ADC_REG_SQRX_REGOFFSET_MASK));
 80016ec:	fab3 f383 	clz	r3, r3
 80016f0:	fa29 f903 	lsr.w	r9, r9, r3
  MODIFY_REG(*preg,
 80016f4:	f855 3029 	ldr.w	r3, [r5, r9, lsl #2]
 80016f8:	f023 031f 	bic.w	r3, r3, #31
 80016fc:	f043 0309 	orr.w	r3, r3, #9
 8001700:	f845 3029 	str.w	r3, [r5, r9, lsl #2]
  LL_ADC_SetChannelSamplingTime(ADC1, LL_ADC_CHANNEL_9, LL_ADC_SAMPLINGTIME_13CYCLES_5);
 8001704:	4632      	mov	r2, r6
 8001706:	2109      	movs	r1, #9
 8001708:	f2c0 31b0 	movt	r1, #944	@ 0x3b0
 800170c:	4640      	mov	r0, r8
 800170e:	f7ff fda6 	bl	800125e <LL_ADC_SetChannelSamplingTime>
  DAC_ChannelConfTypeDef sConfig = {0};
 8001712:	940f      	str	r4, [sp, #60]	@ 0x3c
 8001714:	9410      	str	r4, [sp, #64]	@ 0x40
  hdac.Instance = DAC;
 8001716:	f240 304c 	movw	r0, #844	@ 0x34c
 800171a:	f2c2 0000 	movt	r0, #8192	@ 0x2000
 800171e:	f44f 43e8 	mov.w	r3, #29696	@ 0x7400
 8001722:	f2c4 0300 	movt	r3, #16384	@ 0x4000
 8001726:	6003      	str	r3, [r0, #0]
  if (HAL_DAC_Init(&hdac) != HAL_OK)
 8001728:	f000 fd44 	bl	80021b4 <HAL_DAC_Init>
 800172c:	2800      	cmp	r0, #0
 800172e:	f040 810f 	bne.w	8001950 <main+0x628>
  sConfig.DAC_Trigger = DAC_TRIGGER_NONE;
 8001732:	2200      	movs	r2, #0
 8001734:	920f      	str	r2, [sp, #60]	@ 0x3c
  sConfig.DAC_OutputBuffer = DAC_OUTPUTBUFFER_ENABLE;
 8001736:	9210      	str	r2, [sp, #64]	@ 0x40
  if (HAL_DAC_ConfigChannel(&hdac, &sConfig, DAC_CHANNEL_1) != HAL_OK)
 8001738:	a90f      	add	r1, sp, #60	@ 0x3c
 800173a:	f240 304c 	movw	r0, #844	@ 0x34c
 800173e:	f2c2 0000 	movt	r0, #8192	@ 0x2000
 8001742:	f000 fd98 	bl	8002276 <HAL_DAC_ConfigChannel>
 8001746:	2800      	cmp	r0, #0
 8001748:	f040 8104 	bne.w	8001954 <main+0x62c>
  if (HAL_DAC_ConfigChannel(&hdac, &sConfig, DAC_CHANNEL_2) != HAL_OK)
 800174c:	2210      	movs	r2, #16
 800174e:	a90f      	add	r1, sp, #60	@ 0x3c
 8001750:	f240 304c 	movw	r0, #844	@ 0x34c
 8001754:	f2c2 0000 	movt	r0, #8192	@ 0x2000
 8001758:	f000 fd8d 	bl	8002276 <HAL_DAC_ConfigChannel>
 800175c:	2800      	cmp	r0, #0
 800175e:	f040 80fb 	bne.w	8001958 <main+0x630>
  hi2c1.Instance = I2C1;
 8001762:	f240 20f8 	movw	r0, #760	@ 0x2f8
 8001766:	f2c2 0000 	movt	r0, #8192	@ 0x2000
 800176a:	f44f 43a8 	mov.w	r3, #21504	@ 0x5400
 800176e:	f2c4 0300 	movt	r3, #16384	@ 0x4000
 8001772:	6003      	str	r3, [r0, #0]
  hi2c1.Init.ClockSpeed = 100000;
 8001774:	f248 63a0 	movw	r3, #34464	@ 0x86a0
 8001778:	f2c0 0301 	movt	r3, #1
 800177c:	6043      	str	r3, [r0, #4]
  hi2c1.Init.DutyCycle = I2C_DUTYCYCLE_2;
 800177e:	2300      	movs	r3, #0
 8001780:	6083      	str	r3, [r0, #8]
  hi2c1.Init.OwnAddress1 = 0;
 8001782:	60c3      	str	r3, [r0, #12]
  hi2c1.Init.AddressingMode = I2C_ADDRESSINGMODE_7BIT;
 8001784:	f44f 4280 	mov.w	r2, #16384	@ 0x4000
 8001788:	6102      	str	r2, [r0, #16]
  hi2c1.Init.DualAddressMode = I2C_DUALADDRESS_DISABLE;
 800178a:	6143      	str	r3, [r0, #20]
  hi2c1.Init.OwnAddress2 = 0;
 800178c:	6183      	str	r3, [r0, #24]
  hi2c1.Init.GeneralCallMode = I2C_GENERALCALL_DISABLE;
 800178e:	61c3      	str	r3, [r0, #28]
  hi2c1.Init.NoStretchMode = I2C_NOSTRETCH_DISABLE;
 8001790:	6203      	str	r3, [r0, #32]
  if (HAL_I2C_Init(&hi2c1) != HAL_OK)
 8001792:	f000 ff0c 	bl	80025ae <HAL_I2C_Init>
 8001796:	2800      	cmp	r0, #0
 8001798:	f040 80e0 	bne.w	800195c <main+0x634>
  huart1.Instance = USART1;
 800179c:	f240 2020 	movw	r0, #544	@ 0x220
 80017a0:	f2c2 0000 	movt	r0, #8192	@ 0x2000
 80017a4:	f44f 5360 	mov.w	r3, #14336	@ 0x3800
 80017a8:	f2c4 0301 	movt	r3, #16385	@ 0x4001
 80017ac:	6003      	str	r3, [r0, #0]
  huart1.Init.BaudRate = 115200;
 80017ae:	f44f 33e1 	mov.w	r3, #115200	@ 0x1c200
 80017b2:	6043      	str	r3, [r0, #4]
  huart1.Init.WordLength = UART_WORDLENGTH_8B;
 80017b4:	2300      	movs	r3, #0
 80017b6:	6083      	str	r3, [r0, #8]
  huart1.Init.StopBits = UART_STOPBITS_1;
 80017b8:	60c3      	str	r3, [r0, #12]
  huart1.Init.Parity = UART_PARITY_NONE;
 80017ba:	6103      	str	r3, [r0, #16]
  huart1.Init.Mode = UART_MODE_TX_RX;
 80017bc:	220c      	movs	r2, #12
 80017be:	6142      	str	r2, [r0, #20]
  huart1.Init.HwFlowCtl = UART_HWCONTROL_NONE;
 80017c0:	6183      	str	r3, [r0, #24]
  huart1.Init.OverSampling = UART_OVERSAMPLING_16;
 80017c2:	61c3      	str	r3, [r0, #28]
  if (HAL_UART_Init(&huart1) != HAL_OK)
 80017c4:	f001 ffa7 	bl	8003716 <HAL_UART_Init>
 80017c8:	2800      	cmp	r0, #0
 80017ca:	f040 80c9 	bne.w	8001960 <main+0x638>
  TIM_ClockConfigTypeDef sClockSourceConfig = {0};
 80017ce:	2300      	movs	r3, #0
 80017d0:	930f      	str	r3, [sp, #60]	@ 0x3c
 80017d2:	9310      	str	r3, [sp, #64]	@ 0x40
 80017d4:	9311      	str	r3, [sp, #68]	@ 0x44
 80017d6:	9312      	str	r3, [sp, #72]	@ 0x48
  TIM_MasterConfigTypeDef sMasterConfig = {0};
 80017d8:	930a      	str	r3, [sp, #40]	@ 0x28
 80017da:	930b      	str	r3, [sp, #44]	@ 0x2c
  htim3.Instance = TIM3;
 80017dc:	f240 20b0 	movw	r0, #688	@ 0x2b0
 80017e0:	f2c2 0000 	movt	r0, #8192	@ 0x2000
 80017e4:	f44f 6280 	mov.w	r2, #1024	@ 0x400
 80017e8:	f2c4 0200 	movt	r2, #16384	@ 0x4000
 80017ec:	6002      	str	r2, [r0, #0]
  htim3.Init.Prescaler = 23;
 80017ee:	2217      	movs	r2, #23
 80017f0:	6042      	str	r2, [r0, #4]
  htim3.Init.CounterMode = TIM_COUNTERMODE_UP;
 80017f2:	6083      	str	r3, [r0, #8]
  htim3.Init.Period = 999;
 80017f4:	f240 32e7 	movw	r2, #999	@ 0x3e7
 80017f8:	60c2      	str	r2, [r0, #12]
  htim3.Init.ClockDivision = TIM_CLOCKDIVISION_DIV1;
 80017fa:	6103      	str	r3, [r0, #16]
  htim3.Init.AutoReloadPreload = TIM_AUTORELOAD_PRELOAD_DISABLE;
 80017fc:	6183      	str	r3, [r0, #24]
  if (HAL_TIM_Base_Init(&htim3) != HAL_OK)
 80017fe:	f001 fdf0 	bl	80033e2 <HAL_TIM_Base_Init>
 8001802:	2800      	cmp	r0, #0
 8001804:	f040 80ae 	bne.w	8001964 <main+0x63c>
  sClockSourceConfig.ClockSource = TIM_CLOCKSOURCE_INTERNAL;
 8001808:	f44f 5380 	mov.w	r3, #4096	@ 0x1000
 800180c:	930f      	str	r3, [sp, #60]	@ 0x3c
  if (HAL_TIM_ConfigClockSource(&htim3, &sClockSourceConfig) != HAL_OK)
 800180e:	a90f      	add	r1, sp, #60	@ 0x3c
 8001810:	f240 20b0 	movw	r0, #688	@ 0x2b0
 8001814:	f2c2 0000 	movt	r0, #8192	@ 0x2000
 8001818:	f001 fe1b 	bl	8003452 <HAL_TIM_ConfigClockSource>
 800181c:	2800      	cmp	r0, #0
 800181e:	f040 80a3 	bne.w	8001968 <main+0x640>
  sMasterConfig.MasterOutputTrigger = TIM_TRGO_UPDATE;
 8001822:	2320      	movs	r3, #32
 8001824:	930a      	str	r3, [sp, #40]	@ 0x28
  sMasterConfig.MasterSlaveMode = TIM_MASTERSLAVEMODE_DISABLE;
 8001826:	2300      	movs	r3, #0
 8001828:	930b      	str	r3, [sp, #44]	@ 0x2c
  if (HAL_TIMEx_MasterConfigSynchronization(&htim3, &sMasterConfig) != HAL_OK)
 800182a:	a90a      	add	r1, sp, #40	@ 0x28
 800182c:	f240 20b0 	movw	r0, #688	@ 0x2b0
 8001830:	f2c2 0000 	movt	r0, #8192	@ 0x2000
 8001834:	f001 fec2 	bl	80035bc <HAL_TIMEx_MasterConfigSynchronization>
 8001838:	2800      	cmp	r0, #0
 800183a:	f040 8097 	bne.w	800196c <main+0x644>
  TIM_MasterConfigTypeDef sMasterConfig = {0};
 800183e:	2300      	movs	r3, #0
 8001840:	930f      	str	r3, [sp, #60]	@ 0x3c
 8001842:	9310      	str	r3, [sp, #64]	@ 0x40
  htim7.Instance = TIM7;
 8001844:	f240 2068 	movw	r0, #616	@ 0x268
 8001848:	f2c2 0000 	movt	r0, #8192	@ 0x2000
 800184c:	f44f 52a0 	mov.w	r2, #5120	@ 0x1400
 8001850:	f2c4 0200 	movt	r2, #16384	@ 0x4000
 8001854:	6002      	str	r2, [r0, #0]
  htim7.Init.Prescaler = 239;
 8001856:	22ef      	movs	r2, #239	@ 0xef
 8001858:	6042      	str	r2, [r0, #4]
  htim7.Init.CounterMode = TIM_COUNTERMODE_UP;
 800185a:	6083      	str	r3, [r0, #8]
  htim7.Init.Period = 9999;
 800185c:	f242 720f 	movw	r2, #9999	@ 0x270f
 8001860:	60c2      	str	r2, [r0, #12]
  htim7.Init.AutoReloadPreload = TIM_AUTORELOAD_PRELOAD_DISABLE;
 8001862:	6183      	str	r3, [r0, #24]
  if (HAL_TIM_Base_Init(&htim7) != HAL_OK)
 8001864:	f001 fdbd 	bl	80033e2 <HAL_TIM_Base_Init>
 8001868:	2800      	cmp	r0, #0
 800186a:	f040 8081 	bne.w	8001970 <main+0x648>
  sMasterConfig.MasterOutputTrigger = TIM_TRGO_UPDATE;
 800186e:	2320      	movs	r3, #32
 8001870:	930f      	str	r3, [sp, #60]	@ 0x3c
  sMasterConfig.MasterSlaveMode = TIM_MASTERSLAVEMODE_DISABLE;
 8001872:	2300      	movs	r3, #0
 8001874:	9310      	str	r3, [sp, #64]	@ 0x40
  if (HAL_TIMEx_MasterConfigSynchronization(&htim7, &sMasterConfig) != HAL_OK)
 8001876:	a90f      	add	r1, sp, #60	@ 0x3c
 8001878:	f240 2068 	movw	r0, #616	@ 0x268
 800187c:	f2c2 0000 	movt	r0, #8192	@ 0x2000
 8001880:	f001 fe9c 	bl	80035bc <HAL_TIMEx_MasterConfigSynchronization>
 8001884:	4680      	mov	r8, r0
 8001886:	2800      	cmp	r0, #0
 8001888:	d174      	bne.n	8001974 <main+0x64c>
  adc_init();
 800188a:	f7ff f94d 	bl	8000b28 <adc_init>
  HAL_TIM_Base_Start(&htim3);
 800188e:	f240 20b0 	movw	r0, #688	@ 0x2b0
 8001892:	f2c2 0000 	movt	r0, #8192	@ 0x2000
 8001896:	f001 fbab 	bl	8002ff0 <HAL_TIM_Base_Start>
  LCD_Backlight(1);
 800189a:	2001      	movs	r0, #1
 800189c:	f7ff fa27 	bl	8000cee <LCD_Backlight>
  LCD_Init();
 80018a0:	f7ff fa32 	bl	8000d08 <LCD_Init>
  HAL_DAC_Start(&hdac, DAC_CHANNEL_1);
 80018a4:	f240 354c 	movw	r5, #844	@ 0x34c
 80018a8:	f2c2 0500 	movt	r5, #8192	@ 0x2000
 80018ac:	2100      	movs	r1, #0
 80018ae:	4628      	mov	r0, r5
 80018b0:	f000 fc92 	bl	80021d8 <HAL_DAC_Start>
  HAL_DAC_Start(&hdac, DAC_CHANNEL_2);
 80018b4:	2110      	movs	r1, #16
 80018b6:	4628      	mov	r0, r5
 80018b8:	f000 fc8e 	bl	80021d8 <HAL_DAC_Start>
  HAL_GPIO_WritePin(LCD_BL_GPIO_Port,LCD_BL_Pin, 0);
 80018bc:	2200      	movs	r2, #0
 80018be:	f44f 4100 	mov.w	r1, #32768	@ 0x8000
 80018c2:	f44f 6040 	mov.w	r0, #3072	@ 0xc00
 80018c6:	f2c4 0001 	movt	r0, #16385	@ 0x4001
 80018ca:	f000 fe4f 	bl	800256c <HAL_GPIO_WritePin>
  HAL_GPIO_WritePin(SHUTDOWN1_GPIO_Port, SHUTDOWN1_Pin, 0);
 80018ce:	f44f 5480 	mov.w	r4, #4096	@ 0x1000
 80018d2:	f2c4 0401 	movt	r4, #16385	@ 0x4001
 80018d6:	2200      	movs	r2, #0
 80018d8:	f44f 5100 	mov.w	r1, #8192	@ 0x2000
 80018dc:	4620      	mov	r0, r4
 80018de:	f000 fe45 	bl	800256c <HAL_GPIO_WritePin>
  HAL_GPIO_WritePin(SHUTDOWN2_GPIO_Port, SHUTDOWN2_Pin, 0);
 80018e2:	2200      	movs	r2, #0
 80018e4:	f44f 4180 	mov.w	r1, #16384	@ 0x4000
 80018e8:	4620      	mov	r0, r4
 80018ea:	f000 fe3f 	bl	800256c <HAL_GPIO_WritePin>
  HAL_DAC_SetValue(&hdac, DAC_CHANNEL_1, DAC_ALIGN_12B_R, 4095);
 80018ee:	f640 73ff 	movw	r3, #4095	@ 0xfff
 80018f2:	2200      	movs	r2, #0
 80018f4:	4611      	mov	r1, r2
 80018f6:	4628      	mov	r0, r5
 80018f8:	f000 fca4 	bl	8002244 <HAL_DAC_SetValue>
  pageID = 0;
 80018fc:	f240 251d 	movw	r5, #541	@ 0x21d
 8001900:	f2c2 0500 	movt	r5, #8192	@ 0x2000
 8001904:	2600      	movs	r6, #0
 8001906:	702e      	strb	r6, [r5, #0]
  lcd_handle();
 8001908:	f7ff fb01 	bl	8000f0e <lcd_handle>
  HAL_GPIO_WritePin(BUZZER_GPIO_Port, BUZZER_Pin, 1);
 800190c:	2201      	movs	r2, #1
 800190e:	f44f 4100 	mov.w	r1, #32768	@ 0x8000
 8001912:	4620      	mov	r0, r4
 8001914:	f000 fe2a 	bl	800256c <HAL_GPIO_WritePin>
  HAL_Delay(250);
 8001918:	20fa      	movs	r0, #250	@ 0xfa
 800191a:	f000 fbc8 	bl	80020ae <HAL_Delay>
  HAL_GPIO_WritePin(BUZZER_GPIO_Port, BUZZER_Pin, 0);
 800191e:	4632      	mov	r2, r6
 8001920:	f44f 4100 	mov.w	r1, #32768	@ 0x8000
 8001924:	4620      	mov	r0, r4
 8001926:	f000 fe21 	bl	800256c <HAL_GPIO_WritePin>
  HAL_Delay(2500);
 800192a:	f640 10c4 	movw	r0, #2500	@ 0x9c4
 800192e:	f000 fbbe 	bl	80020ae <HAL_Delay>
  pageID = 1;
 8001932:	2301      	movs	r3, #1
 8001934:	702b      	strb	r3, [r5, #0]
	  switch(mainCounter)
 8001936:	f240 251e 	movw	r5, #542	@ 0x21e
 800193a:	f2c2 0500 	movt	r5, #8192	@ 0x2000
		  adcVAC = sqrt((double) (adcRmsSum / N_VALUE) );
 800193e:	f648 6739 	movw	r7, #36409	@ 0x8e39
 8001942:	f6c3 07e3 	movt	r7, #14563	@ 0x38e3
	  HAL_GPIO_TogglePin(LED_GPIO_Port, LED_Pin);
 8001946:	f44f 6600 	mov.w	r6, #2048	@ 0x800
 800194a:	f2c4 0601 	movt	r6, #16385	@ 0x4001
 800194e:	e03c      	b.n	80019ca <main+0x6a2>
  __ASM volatile ("cpsid i" : : : "memory");
 8001950:	b672      	cpsid	i
  while (1)
 8001952:	e7fe      	b.n	8001952 <main+0x62a>
 8001954:	b672      	cpsid	i
 8001956:	e7fe      	b.n	8001956 <main+0x62e>
 8001958:	b672      	cpsid	i
 800195a:	e7fe      	b.n	800195a <main+0x632>
 800195c:	b672      	cpsid	i
 800195e:	e7fe      	b.n	800195e <main+0x636>
 8001960:	b672      	cpsid	i
 8001962:	e7fe      	b.n	8001962 <main+0x63a>
 8001964:	b672      	cpsid	i
 8001966:	e7fe      	b.n	8001966 <main+0x63e>
 8001968:	b672      	cpsid	i
 800196a:	e7fe      	b.n	800196a <main+0x642>
 800196c:	b672      	cpsid	i
 800196e:	e7fe      	b.n	800196e <main+0x646>
 8001970:	b672      	cpsid	i
 8001972:	e7fe      	b.n	8001972 <main+0x64a>
 8001974:	b672      	cpsid	i
 8001976:	e7fe      	b.n	8001976 <main+0x64e>
		  adcTEMP = adcMeanSum[listTEMP - 1] >> SAMPLE_2N ;
 8001978:	f240 039c 	movw	r3, #156	@ 0x9c
 800197c:	f2c2 0300 	movt	r3, #8192	@ 0x2000
 8001980:	f240 1204 	movw	r2, #260	@ 0x104
 8001984:	f2c2 0200 	movt	r2, #8192	@ 0x2000
 8001988:	6812      	ldr	r2, [r2, #0]
 800198a:	1112      	asrs	r2, r2, #4
 800198c:	801a      	strh	r2, [r3, #0]
		  break;
 800198e:	2301      	movs	r3, #1
		  mainCounter++;
 8001990:	702b      	strb	r3, [r5, #0]
	  HAL_DAC_SetValue(&hdac, DAC_CHANNEL_2, DAC_ALIGN_12B_R, dacValueV);
 8001992:	f240 0304 	movw	r3, #4
 8001996:	f2c2 0300 	movt	r3, #8192	@ 0x2000
 800199a:	f240 344c 	movw	r4, #844	@ 0x34c
 800199e:	f2c2 0400 	movt	r4, #8192	@ 0x2000
 80019a2:	881b      	ldrh	r3, [r3, #0]
 80019a4:	2200      	movs	r2, #0
 80019a6:	2110      	movs	r1, #16
 80019a8:	4620      	mov	r0, r4
 80019aa:	f000 fc4b 	bl	8002244 <HAL_DAC_SetValue>
	  HAL_DAC_SetValue(&hdac, DAC_CHANNEL_1, DAC_ALIGN_12B_R, dacValueI);
 80019ae:	f240 0302 	movw	r3, #2
 80019b2:	f2c2 0300 	movt	r3, #8192	@ 0x2000
 80019b6:	881b      	ldrh	r3, [r3, #0]
 80019b8:	2200      	movs	r2, #0
 80019ba:	4611      	mov	r1, r2
 80019bc:	4620      	mov	r0, r4
 80019be:	f000 fc41 	bl	8002244 <HAL_DAC_SetValue>
	  HAL_GPIO_TogglePin(LED_GPIO_Port, LED_Pin);
 80019c2:	2108      	movs	r1, #8
 80019c4:	4630      	mov	r0, r6
 80019c6:	f000 fdd7 	bl	8002578 <HAL_GPIO_TogglePin>
	  switch(mainCounter)
 80019ca:	782b      	ldrb	r3, [r5, #0]
 80019cc:	2b08      	cmp	r3, #8
 80019ce:	f200 80a1 	bhi.w	8001b14 <main+0x7ec>
 80019d2:	a201      	add	r2, pc, #4	@ (adr r2, 80019d8 <main+0x6b0>)
 80019d4:	f852 f023 	ldr.w	pc, [r2, r3, lsl #2]
 80019d8:	08001979 	.word	0x08001979
 80019dc:	080019fd 	.word	0x080019fd
 80019e0:	08001a17 	.word	0x08001a17
 80019e4:	08001a31 	.word	0x08001a31
 80019e8:	08001a4b 	.word	0x08001a4b
 80019ec:	08001a65 	.word	0x08001a65
 80019f0:	08001a7f 	.word	0x08001a7f
 80019f4:	08001afd 	.word	0x08001afd
 80019f8:	08001b09 	.word	0x08001b09
		  adcIDC = adcMeanSum[listIDC - 1] >> SAMPLE_2N ;
 80019fc:	f240 039a 	movw	r3, #154	@ 0x9a
 8001a00:	f2c2 0300 	movt	r3, #8192	@ 0x2000
 8001a04:	f240 1204 	movw	r2, #260	@ 0x104
 8001a08:	f2c2 0200 	movt	r2, #8192	@ 0x2000
 8001a0c:	6852      	ldr	r2, [r2, #4]
 8001a0e:	1112      	asrs	r2, r2, #4
 8001a10:	801a      	strh	r2, [r3, #0]
		  break;
 8001a12:	2302      	movs	r3, #2
 8001a14:	e7bc      	b.n	8001990 <main+0x668>
		  adcVBAT1 = adcMeanSum[listVBAT1 - 1] >> SAMPLE_2N ;
 8001a16:	f240 0398 	movw	r3, #152	@ 0x98
 8001a1a:	f2c2 0300 	movt	r3, #8192	@ 0x2000
 8001a1e:	f240 1204 	movw	r2, #260	@ 0x104
 8001a22:	f2c2 0200 	movt	r2, #8192	@ 0x2000
 8001a26:	6892      	ldr	r2, [r2, #8]
 8001a28:	1112      	asrs	r2, r2, #4
 8001a2a:	801a      	strh	r2, [r3, #0]
		  break;
 8001a2c:	2303      	movs	r3, #3
 8001a2e:	e7af      	b.n	8001990 <main+0x668>
		  adcVDC1 = adcMeanSum[listVDC1 - 1] >> SAMPLE_2N ;
 8001a30:	f240 0396 	movw	r3, #150	@ 0x96
 8001a34:	f2c2 0300 	movt	r3, #8192	@ 0x2000
 8001a38:	f240 1204 	movw	r2, #260	@ 0x104
 8001a3c:	f2c2 0200 	movt	r2, #8192	@ 0x2000
 8001a40:	68d2      	ldr	r2, [r2, #12]
 8001a42:	1112      	asrs	r2, r2, #4
 8001a44:	801a      	strh	r2, [r3, #0]
		  break;
 8001a46:	2304      	movs	r3, #4
 8001a48:	e7a2      	b.n	8001990 <main+0x668>
		  adcVDC2 = adcMeanSum[listVDC2 - 1] >> SAMPLE_2N ;
 8001a4a:	f240 0394 	movw	r3, #148	@ 0x94
 8001a4e:	f2c2 0300 	movt	r3, #8192	@ 0x2000
 8001a52:	f240 1204 	movw	r2, #260	@ 0x104
 8001a56:	f2c2 0200 	movt	r2, #8192	@ 0x2000
 8001a5a:	6912      	ldr	r2, [r2, #16]
 8001a5c:	1112      	asrs	r2, r2, #4
 8001a5e:	801a      	strh	r2, [r3, #0]
		  break;
 8001a60:	2305      	movs	r3, #5
 8001a62:	e795      	b.n	8001990 <main+0x668>
		  adcIDC2 = adcMeanSum[listIDC2 - 1] >> SAMPLE_2N ;
 8001a64:	f240 0392 	movw	r3, #146	@ 0x92
 8001a68:	f2c2 0300 	movt	r3, #8192	@ 0x2000
 8001a6c:	f240 1204 	movw	r2, #260	@ 0x104
 8001a70:	f2c2 0200 	movt	r2, #8192	@ 0x2000
 8001a74:	6952      	ldr	r2, [r2, #20]
 8001a76:	1112      	asrs	r2, r2, #4
 8001a78:	801a      	strh	r2, [r3, #0]
		  break;
 8001a7a:	2306      	movs	r3, #6
 8001a7c:	e788      	b.n	8001990 <main+0x668>
		  adcVAC = sqrt((double) (adcRmsSum / N_VALUE) );
 8001a7e:	f240 03a8 	movw	r3, #168	@ 0xa8
 8001a82:	f2c2 0300 	movt	r3, #8192	@ 0x2000
 8001a86:	681a      	ldr	r2, [r3, #0]
 8001a88:	6859      	ldr	r1, [r3, #4]
 8001a8a:	17cc      	asrs	r4, r1, #31
 8001a8c:	f022 4340 	bic.w	r3, r2, #3221225472	@ 0xc0000000
 8001a90:	0f90      	lsrs	r0, r2, #30
 8001a92:	ea40 0081 	orr.w	r0, r0, r1, lsl #2
 8001a96:	f020 4040 	bic.w	r0, r0, #3221225472	@ 0xc0000000
 8001a9a:	4403      	add	r3, r0
 8001a9c:	eb03 7311 	add.w	r3, r3, r1, lsr #28
 8001aa0:	eb03 73d1 	add.w	r3, r3, r1, lsr #31
 8001aa4:	fba7 c003 	umull	ip, r0, r7, r3
 8001aa8:	0840      	lsrs	r0, r0, #1
 8001aaa:	eb00 00c0 	add.w	r0, r0, r0, lsl #3
 8001aae:	1a1b      	subs	r3, r3, r0
 8001ab0:	f024 0407 	bic.w	r4, r4, #7
 8001ab4:	4423      	add	r3, r4
 8001ab6:	1ad2      	subs	r2, r2, r3
 8001ab8:	eb61 71e3 	sbc.w	r1, r1, r3, asr #31
 8001abc:	f24e 338e 	movw	r3, #58254	@ 0xe38e
 8001ac0:	f6c8 6338 	movt	r3, #36408	@ 0x8e38
 8001ac4:	fb02 f303 	mul.w	r3, r2, r3
 8001ac8:	fb07 3301 	mla	r3, r7, r1, r3
 8001acc:	fba2 2107 	umull	r2, r1, r2, r7
 8001ad0:	4419      	add	r1, r3
 8001ad2:	0fc8      	lsrs	r0, r1, #31
 8001ad4:	1880      	adds	r0, r0, r2
 8001ad6:	f141 0100 	adc.w	r1, r1, #0
 8001ada:	0840      	lsrs	r0, r0, #1
 8001adc:	ea40 70c1 	orr.w	r0, r0, r1, lsl #31
 8001ae0:	1049      	asrs	r1, r1, #1
 8001ae2:	f7fe fd23 	bl	800052c <__aeabi_l2d>
 8001ae6:	f001 ff41 	bl	800396c <sqrt>
 8001aea:	f240 049e 	movw	r4, #158	@ 0x9e
 8001aee:	f2c2 0400 	movt	r4, #8192	@ 0x2000
 8001af2:	f7fe fff9 	bl	8000ae8 <__aeabi_d2uiz>
 8001af6:	8020      	strh	r0, [r4, #0]
		  break;
 8001af8:	2307      	movs	r3, #7
 8001afa:	e749      	b.n	8001990 <main+0x668>
		  lcd_handle();
 8001afc:	f7ff fa07 	bl	8000f0e <lcd_handle>
		  mainCounter++;
 8001b00:	782b      	ldrb	r3, [r5, #0]
 8001b02:	3301      	adds	r3, #1
 8001b04:	b2db      	uxtb	r3, r3
		  break;
 8001b06:	e743      	b.n	8001990 <main+0x668>
		  button_handle();
 8001b08:	f7ff fb18 	bl	800113c <button_handle>
		  mainCounter++;
 8001b0c:	782b      	ldrb	r3, [r5, #0]
 8001b0e:	3301      	adds	r3, #1
 8001b10:	b2db      	uxtb	r3, r3
		  break;
 8001b12:	e73d      	b.n	8001990 <main+0x668>
	  switch(mainCounter)
 8001b14:	4643      	mov	r3, r8
 8001b16:	e73b      	b.n	8001990 <main+0x668>

08001b18 <HAL_MspInit>:
/* USER CODE END 0 */
/**
  * Initializes the Global MSP.
  */
void HAL_MspInit(void)
{
 8001b18:	b500      	push	{lr}
 8001b1a:	b083      	sub	sp, #12

  /* USER CODE BEGIN MspInit 0 */

  /* USER CODE END MspInit 0 */

  __HAL_RCC_AFIO_CLK_ENABLE();
 8001b1c:	f44f 5380 	mov.w	r3, #4096	@ 0x1000
 8001b20:	f2c4 0302 	movt	r3, #16386	@ 0x4002
 8001b24:	699a      	ldr	r2, [r3, #24]
 8001b26:	f042 0201 	orr.w	r2, r2, #1
 8001b2a:	619a      	str	r2, [r3, #24]
 8001b2c:	699a      	ldr	r2, [r3, #24]
 8001b2e:	f002 0201 	and.w	r2, r2, #1
 8001b32:	9200      	str	r2, [sp, #0]
 8001b34:	9a00      	ldr	r2, [sp, #0]
  __HAL_RCC_PWR_CLK_ENABLE();
 8001b36:	69da      	ldr	r2, [r3, #28]
 8001b38:	f042 5280 	orr.w	r2, r2, #268435456	@ 0x10000000
 8001b3c:	61da      	str	r2, [r3, #28]
 8001b3e:	69db      	ldr	r3, [r3, #28]
 8001b40:	f003 5380 	and.w	r3, r3, #268435456	@ 0x10000000
 8001b44:	9301      	str	r3, [sp, #4]
 8001b46:	9b01      	ldr	r3, [sp, #4]

  /* System interrupt init*/

  /* Peripheral interrupt init */
  /* RCC_IRQn interrupt configuration */
  HAL_NVIC_SetPriority(RCC_IRQn, 0, 0);
 8001b48:	2200      	movs	r2, #0
 8001b4a:	4611      	mov	r1, r2
 8001b4c:	2005      	movs	r0, #5
 8001b4e:	f000 fad5 	bl	80020fc <HAL_NVIC_SetPriority>
  HAL_NVIC_EnableIRQ(RCC_IRQn);
 8001b52:	2005      	movs	r0, #5
 8001b54:	f000 fb0b 	bl	800216e <HAL_NVIC_EnableIRQ>

  /** NOJTAG: JTAG-DP Disabled and SW-DP Enabled
  */
  __HAL_AFIO_REMAP_SWJ_NOJTAG();
 8001b58:	2200      	movs	r2, #0
 8001b5a:	f2c4 0201 	movt	r2, #16385	@ 0x4001
 8001b5e:	6853      	ldr	r3, [r2, #4]
 8001b60:	f023 63e0 	bic.w	r3, r3, #117440512	@ 0x7000000
 8001b64:	f043 7300 	orr.w	r3, r3, #33554432	@ 0x2000000
 8001b68:	6053      	str	r3, [r2, #4]

  /* USER CODE BEGIN MspInit 1 */

  /* USER CODE END MspInit 1 */
}
 8001b6a:	b003      	add	sp, #12
 8001b6c:	f85d fb04 	ldr.w	pc, [sp], #4

08001b70 <HAL_DAC_MspInit>:
  * This function configures the hardware resources used in this example
  * @param hdac: DAC handle pointer
  * @retval None
  */
void HAL_DAC_MspInit(DAC_HandleTypeDef* hdac)
{
 8001b70:	b500      	push	{lr}
 8001b72:	b087      	sub	sp, #28
  GPIO_InitTypeDef GPIO_InitStruct = {0};
 8001b74:	2300      	movs	r3, #0
 8001b76:	9302      	str	r3, [sp, #8]
 8001b78:	9303      	str	r3, [sp, #12]
 8001b7a:	9304      	str	r3, [sp, #16]
 8001b7c:	9305      	str	r3, [sp, #20]
  if(hdac->Instance==DAC)
 8001b7e:	f44f 43e8 	mov.w	r3, #29696	@ 0x7400
 8001b82:	f2c4 0300 	movt	r3, #16384	@ 0x4000
 8001b86:	6802      	ldr	r2, [r0, #0]
 8001b88:	429a      	cmp	r2, r3
 8001b8a:	d002      	beq.n	8001b92 <HAL_DAC_MspInit+0x22>

    /* USER CODE END DAC_MspInit 1 */

  }

}
 8001b8c:	b007      	add	sp, #28
 8001b8e:	f85d fb04 	ldr.w	pc, [sp], #4
    __HAL_RCC_DAC_CLK_ENABLE();
 8001b92:	f44f 5380 	mov.w	r3, #4096	@ 0x1000
 8001b96:	f2c4 0302 	movt	r3, #16386	@ 0x4002
 8001b9a:	69da      	ldr	r2, [r3, #28]
 8001b9c:	f042 5200 	orr.w	r2, r2, #536870912	@ 0x20000000
 8001ba0:	61da      	str	r2, [r3, #28]
 8001ba2:	69da      	ldr	r2, [r3, #28]
 8001ba4:	f002 5200 	and.w	r2, r2, #536870912	@ 0x20000000
 8001ba8:	9200      	str	r2, [sp, #0]
 8001baa:	9a00      	ldr	r2, [sp, #0]
    __HAL_RCC_GPIOA_CLK_ENABLE();
 8001bac:	699a      	ldr	r2, [r3, #24]
 8001bae:	f042 0204 	orr.w	r2, r2, #4
 8001bb2:	619a      	str	r2, [r3, #24]
 8001bb4:	699b      	ldr	r3, [r3, #24]
 8001bb6:	f003 0304 	and.w	r3, r3, #4
 8001bba:	9301      	str	r3, [sp, #4]
 8001bbc:	9b01      	ldr	r3, [sp, #4]
    GPIO_InitStruct.Pin = GPIO_PIN_4|GPIO_PIN_5;
 8001bbe:	2330      	movs	r3, #48	@ 0x30
 8001bc0:	9302      	str	r3, [sp, #8]
    GPIO_InitStruct.Mode = GPIO_MODE_ANALOG;
 8001bc2:	2303      	movs	r3, #3
 8001bc4:	9303      	str	r3, [sp, #12]
    HAL_GPIO_Init(GPIOA, &GPIO_InitStruct);
 8001bc6:	a902      	add	r1, sp, #8
 8001bc8:	f44f 6000 	mov.w	r0, #2048	@ 0x800
 8001bcc:	f2c4 0001 	movt	r0, #16385	@ 0x4001
 8001bd0:	f000 fb82 	bl	80022d8 <HAL_GPIO_Init>
}
 8001bd4:	e7da      	b.n	8001b8c <HAL_DAC_MspInit+0x1c>

08001bd6 <HAL_I2C_MspInit>:
  * This function configures the hardware resources used in this example
  * @param hi2c: I2C handle pointer
  * @retval None
  */
void HAL_I2C_MspInit(I2C_HandleTypeDef* hi2c)
{
 8001bd6:	b510      	push	{r4, lr}
 8001bd8:	b086      	sub	sp, #24
  GPIO_InitTypeDef GPIO_InitStruct = {0};
 8001bda:	2300      	movs	r3, #0
 8001bdc:	9302      	str	r3, [sp, #8]
 8001bde:	9303      	str	r3, [sp, #12]
 8001be0:	9304      	str	r3, [sp, #16]
 8001be2:	9305      	str	r3, [sp, #20]
  if(hi2c->Instance==I2C1)
 8001be4:	f44f 43a8 	mov.w	r3, #21504	@ 0x5400
 8001be8:	f2c4 0300 	movt	r3, #16384	@ 0x4000
 8001bec:	6802      	ldr	r2, [r0, #0]
 8001bee:	429a      	cmp	r2, r3
 8001bf0:	d001      	beq.n	8001bf6 <HAL_I2C_MspInit+0x20>

    /* USER CODE END I2C1_MspInit 1 */

  }

}
 8001bf2:	b006      	add	sp, #24
 8001bf4:	bd10      	pop	{r4, pc}
    __HAL_RCC_GPIOB_CLK_ENABLE();
 8001bf6:	f44f 5480 	mov.w	r4, #4096	@ 0x1000
 8001bfa:	f2c4 0402 	movt	r4, #16386	@ 0x4002
 8001bfe:	69a3      	ldr	r3, [r4, #24]
 8001c00:	f043 0308 	orr.w	r3, r3, #8
 8001c04:	61a3      	str	r3, [r4, #24]
 8001c06:	69a3      	ldr	r3, [r4, #24]
 8001c08:	f003 0308 	and.w	r3, r3, #8
 8001c0c:	9300      	str	r3, [sp, #0]
 8001c0e:	9b00      	ldr	r3, [sp, #0]
    GPIO_InitStruct.Pin = GPIO_PIN_8|GPIO_PIN_9;
 8001c10:	f44f 7340 	mov.w	r3, #768	@ 0x300
 8001c14:	9302      	str	r3, [sp, #8]
    GPIO_InitStruct.Mode = GPIO_MODE_AF_OD;
 8001c16:	2312      	movs	r3, #18
 8001c18:	9303      	str	r3, [sp, #12]
    GPIO_InitStruct.Speed = GPIO_SPEED_FREQ_HIGH;
 8001c1a:	2303      	movs	r3, #3
 8001c1c:	9305      	str	r3, [sp, #20]
    HAL_GPIO_Init(GPIOB, &GPIO_InitStruct);
 8001c1e:	a902      	add	r1, sp, #8
 8001c20:	f44f 6040 	mov.w	r0, #3072	@ 0xc00
 8001c24:	f2c4 0001 	movt	r0, #16385	@ 0x4001
 8001c28:	f000 fb56 	bl	80022d8 <HAL_GPIO_Init>
    __HAL_AFIO_REMAP_I2C1_ENABLE();
 8001c2c:	2200      	movs	r2, #0
 8001c2e:	f2c4 0201 	movt	r2, #16385	@ 0x4001
 8001c32:	6853      	ldr	r3, [r2, #4]
 8001c34:	f043 63e0 	orr.w	r3, r3, #117440512	@ 0x7000000
 8001c38:	f043 0302 	orr.w	r3, r3, #2
 8001c3c:	6053      	str	r3, [r2, #4]
    __HAL_RCC_I2C1_CLK_ENABLE();
 8001c3e:	69e3      	ldr	r3, [r4, #28]
 8001c40:	f443 1300 	orr.w	r3, r3, #2097152	@ 0x200000
 8001c44:	61e3      	str	r3, [r4, #28]
 8001c46:	69e3      	ldr	r3, [r4, #28]
 8001c48:	f403 1300 	and.w	r3, r3, #2097152	@ 0x200000
 8001c4c:	9301      	str	r3, [sp, #4]
 8001c4e:	9b01      	ldr	r3, [sp, #4]
}
 8001c50:	e7cf      	b.n	8001bf2 <HAL_I2C_MspInit+0x1c>

08001c52 <HAL_TIM_Base_MspInit>:
  * This function configures the hardware resources used in this example
  * @param htim_base: TIM_Base handle pointer
  * @retval None
  */
void HAL_TIM_Base_MspInit(TIM_HandleTypeDef* htim_base)
{
 8001c52:	b500      	push	{lr}
 8001c54:	b083      	sub	sp, #12
  if(htim_base->Instance==TIM3)
 8001c56:	6802      	ldr	r2, [r0, #0]
 8001c58:	f44f 6380 	mov.w	r3, #1024	@ 0x400
 8001c5c:	f2c4 0300 	movt	r3, #16384	@ 0x4000
 8001c60:	429a      	cmp	r2, r3
 8001c62:	d008      	beq.n	8001c76 <HAL_TIM_Base_MspInit+0x24>
    HAL_NVIC_EnableIRQ(TIM3_IRQn);
    /* USER CODE BEGIN TIM3_MspInit 1 */

    /* USER CODE END TIM3_MspInit 1 */
  }
  else if(htim_base->Instance==TIM7)
 8001c64:	f44f 53a0 	mov.w	r3, #5120	@ 0x1400
 8001c68:	f2c4 0300 	movt	r3, #16384	@ 0x4000
 8001c6c:	429a      	cmp	r2, r3
 8001c6e:	d018      	beq.n	8001ca2 <HAL_TIM_Base_MspInit+0x50>
    /* USER CODE BEGIN TIM7_MspInit 1 */

    /* USER CODE END TIM7_MspInit 1 */
  }

}
 8001c70:	b003      	add	sp, #12
 8001c72:	f85d fb04 	ldr.w	pc, [sp], #4
    __HAL_RCC_TIM3_CLK_ENABLE();
 8001c76:	f44f 5380 	mov.w	r3, #4096	@ 0x1000
 8001c7a:	f2c4 0302 	movt	r3, #16386	@ 0x4002
 8001c7e:	69da      	ldr	r2, [r3, #28]
 8001c80:	f042 0202 	orr.w	r2, r2, #2
 8001c84:	61da      	str	r2, [r3, #28]
 8001c86:	69db      	ldr	r3, [r3, #28]
 8001c88:	f003 0302 	and.w	r3, r3, #2
 8001c8c:	9300      	str	r3, [sp, #0]
 8001c8e:	9b00      	ldr	r3, [sp, #0]
    HAL_NVIC_SetPriority(TIM3_IRQn, 0, 0);
 8001c90:	2200      	movs	r2, #0
 8001c92:	4611      	mov	r1, r2
 8001c94:	201d      	movs	r0, #29
 8001c96:	f000 fa31 	bl	80020fc <HAL_NVIC_SetPriority>
    HAL_NVIC_EnableIRQ(TIM3_IRQn);
 8001c9a:	201d      	movs	r0, #29
 8001c9c:	f000 fa67 	bl	800216e <HAL_NVIC_EnableIRQ>
 8001ca0:	e7e6      	b.n	8001c70 <HAL_TIM_Base_MspInit+0x1e>
    __HAL_RCC_TIM7_CLK_ENABLE();
 8001ca2:	f44f 5380 	mov.w	r3, #4096	@ 0x1000
 8001ca6:	f2c4 0302 	movt	r3, #16386	@ 0x4002
 8001caa:	69da      	ldr	r2, [r3, #28]
 8001cac:	f042 0220 	orr.w	r2, r2, #32
 8001cb0:	61da      	str	r2, [r3, #28]
 8001cb2:	69db      	ldr	r3, [r3, #28]
 8001cb4:	f003 0320 	and.w	r3, r3, #32
 8001cb8:	9301      	str	r3, [sp, #4]
 8001cba:	9b01      	ldr	r3, [sp, #4]
    HAL_NVIC_SetPriority(TIM7_IRQn, 0, 0);
 8001cbc:	2200      	movs	r2, #0
 8001cbe:	4611      	mov	r1, r2
 8001cc0:	2037      	movs	r0, #55	@ 0x37
 8001cc2:	f000 fa1b 	bl	80020fc <HAL_NVIC_SetPriority>
    HAL_NVIC_EnableIRQ(TIM7_IRQn);
 8001cc6:	2037      	movs	r0, #55	@ 0x37
 8001cc8:	f000 fa51 	bl	800216e <HAL_NVIC_EnableIRQ>
}
 8001ccc:	e7d0      	b.n	8001c70 <HAL_TIM_Base_MspInit+0x1e>

08001cce <HAL_UART_MspInit>:
  * This function configures the hardware resources used in this example
  * @param huart: UART handle pointer
  * @retval None
  */
void HAL_UART_MspInit(UART_HandleTypeDef* huart)
{
 8001cce:	b510      	push	{r4, lr}
 8001cd0:	b086      	sub	sp, #24
  GPIO_InitTypeDef GPIO_InitStruct = {0};
 8001cd2:	2300      	movs	r3, #0
 8001cd4:	9302      	str	r3, [sp, #8]
 8001cd6:	9303      	str	r3, [sp, #12]
 8001cd8:	9304      	str	r3, [sp, #16]
 8001cda:	9305      	str	r3, [sp, #20]
  if(huart->Instance==USART1)
 8001cdc:	f44f 5360 	mov.w	r3, #14336	@ 0x3800
 8001ce0:	f2c4 0301 	movt	r3, #16385	@ 0x4001
 8001ce4:	6802      	ldr	r2, [r0, #0]
 8001ce6:	429a      	cmp	r2, r3
 8001ce8:	d001      	beq.n	8001cee <HAL_UART_MspInit+0x20>

    /* USER CODE END USART1_MspInit 1 */

  }

}
 8001cea:	b006      	add	sp, #24
 8001cec:	bd10      	pop	{r4, pc}
    __HAL_RCC_USART1_CLK_ENABLE();
 8001cee:	f44f 5380 	mov.w	r3, #4096	@ 0x1000
 8001cf2:	f2c4 0302 	movt	r3, #16386	@ 0x4002
 8001cf6:	699a      	ldr	r2, [r3, #24]
 8001cf8:	f442 4280 	orr.w	r2, r2, #16384	@ 0x4000
 8001cfc:	619a      	str	r2, [r3, #24]
 8001cfe:	699a      	ldr	r2, [r3, #24]
 8001d00:	f402 4280 	and.w	r2, r2, #16384	@ 0x4000
 8001d04:	9200      	str	r2, [sp, #0]
 8001d06:	9a00      	ldr	r2, [sp, #0]
    __HAL_RCC_GPIOB_CLK_ENABLE();
 8001d08:	699a      	ldr	r2, [r3, #24]
 8001d0a:	f042 0208 	orr.w	r2, r2, #8
 8001d0e:	619a      	str	r2, [r3, #24]
 8001d10:	699b      	ldr	r3, [r3, #24]
 8001d12:	f003 0308 	and.w	r3, r3, #8
 8001d16:	9301      	str	r3, [sp, #4]
 8001d18:	9b01      	ldr	r3, [sp, #4]
    GPIO_InitStruct.Pin = GPIO_PIN_6;
 8001d1a:	2340      	movs	r3, #64	@ 0x40
 8001d1c:	9302      	str	r3, [sp, #8]
    GPIO_InitStruct.Mode = GPIO_MODE_AF_PP;
 8001d1e:	2302      	movs	r3, #2
 8001d20:	9303      	str	r3, [sp, #12]
    GPIO_InitStruct.Speed = GPIO_SPEED_FREQ_HIGH;
 8001d22:	2303      	movs	r3, #3
 8001d24:	9305      	str	r3, [sp, #20]
    HAL_GPIO_Init(GPIOB, &GPIO_InitStruct);
 8001d26:	f44f 6440 	mov.w	r4, #3072	@ 0xc00
 8001d2a:	f2c4 0401 	movt	r4, #16385	@ 0x4001
 8001d2e:	a902      	add	r1, sp, #8
 8001d30:	4620      	mov	r0, r4
 8001d32:	f000 fad1 	bl	80022d8 <HAL_GPIO_Init>
    GPIO_InitStruct.Pin = GPIO_PIN_7;
 8001d36:	2380      	movs	r3, #128	@ 0x80
 8001d38:	9302      	str	r3, [sp, #8]
    GPIO_InitStruct.Mode = GPIO_MODE_INPUT;
 8001d3a:	2300      	movs	r3, #0
 8001d3c:	9303      	str	r3, [sp, #12]
    GPIO_InitStruct.Pull = GPIO_NOPULL;
 8001d3e:	9304      	str	r3, [sp, #16]
    HAL_GPIO_Init(GPIOB, &GPIO_InitStruct);
 8001d40:	a902      	add	r1, sp, #8
 8001d42:	4620      	mov	r0, r4
 8001d44:	f000 fac8 	bl	80022d8 <HAL_GPIO_Init>
    __HAL_AFIO_REMAP_USART1_ENABLE();
 8001d48:	2200      	movs	r2, #0
 8001d4a:	f2c4 0201 	movt	r2, #16385	@ 0x4001
 8001d4e:	6853      	ldr	r3, [r2, #4]
 8001d50:	f043 63e0 	orr.w	r3, r3, #117440512	@ 0x7000000
 8001d54:	f043 0304 	orr.w	r3, r3, #4
 8001d58:	6053      	str	r3, [r2, #4]
}
 8001d5a:	e7c6      	b.n	8001cea <HAL_UART_MspInit+0x1c>

08001d5c <NMI_Handler>:
/******************************************************************************/
/**
  * @brief This function handles Non maskable interrupt.
  */
void NMI_Handler(void)
{
 8001d5c:	b508      	push	{r3, lr}
  /* USER CODE BEGIN NonMaskableInt_IRQn 0 */

  /* USER CODE END NonMaskableInt_IRQn 0 */
  HAL_RCC_NMI_IRQHandler();
 8001d5e:	f001 f894 	bl	8002e8a <HAL_RCC_NMI_IRQHandler>
  /* USER CODE BEGIN NonMaskableInt_IRQn 1 */
   while (1)
 8001d62:	e7fe      	b.n	8001d62 <NMI_Handler+0x6>

08001d64 <HardFault_Handler>:
void HardFault_Handler(void)
{
  /* USER CODE BEGIN HardFault_IRQn 0 */

  /* USER CODE END HardFault_IRQn 0 */
  while (1)
 8001d64:	e7fe      	b.n	8001d64 <HardFault_Handler>

08001d66 <MemManage_Handler>:
void MemManage_Handler(void)
{
  /* USER CODE BEGIN MemoryManagement_IRQn 0 */

  /* USER CODE END MemoryManagement_IRQn 0 */
  while (1)
 8001d66:	e7fe      	b.n	8001d66 <MemManage_Handler>

08001d68 <BusFault_Handler>:
void BusFault_Handler(void)
{
  /* USER CODE BEGIN BusFault_IRQn 0 */

  /* USER CODE END BusFault_IRQn 0 */
  while (1)
 8001d68:	e7fe      	b.n	8001d68 <BusFault_Handler>

08001d6a <UsageFault_Handler>:
void UsageFault_Handler(void)
{
  /* USER CODE BEGIN UsageFault_IRQn 0 */

  /* USER CODE END UsageFault_IRQn 0 */
  while (1)
 8001d6a:	e7fe      	b.n	8001d6a <UsageFault_Handler>

08001d6c <SVC_Handler>:

  /* USER CODE END SVCall_IRQn 0 */
  /* USER CODE BEGIN SVCall_IRQn 1 */

  /* USER CODE END SVCall_IRQn 1 */
}
 8001d6c:	4770      	bx	lr

08001d6e <DebugMon_Handler>:

  /* USER CODE END DebugMonitor_IRQn 0 */
  /* USER CODE BEGIN DebugMonitor_IRQn 1 */

  /* USER CODE END DebugMonitor_IRQn 1 */
}
 8001d6e:	4770      	bx	lr

08001d70 <PendSV_Handler>:

  /* USER CODE END PendSV_IRQn 0 */
  /* USER CODE BEGIN PendSV_IRQn 1 */

  /* USER CODE END PendSV_IRQn 1 */
}
 8001d70:	4770      	bx	lr

08001d72 <SysTick_Handler>:

/**
  * @brief This function handles System tick timer.
  */
void SysTick_Handler(void)
{
 8001d72:	b508      	push	{r3, lr}
  /* USER CODE BEGIN SysTick_IRQn 0 */

  /* USER CODE END SysTick_IRQn 0 */
  HAL_IncTick();
 8001d74:	f000 f988 	bl	8002088 <HAL_IncTick>
  /* USER CODE BEGIN SysTick_IRQn 1 */

  /* USER CODE END SysTick_IRQn 1 */
}
 8001d78:	bd08      	pop	{r3, pc}

08001d7a <RCC_IRQHandler>:

  /* USER CODE END RCC_IRQn 0 */
  /* USER CODE BEGIN RCC_IRQn 1 */

  /* USER CODE END RCC_IRQn 1 */
}
 8001d7a:	4770      	bx	lr

08001d7c <EXTI2_IRQHandler>:

/**
  * @brief This function handles EXTI line2 interrupt.
  */
void EXTI2_IRQHandler(void)
{
 8001d7c:	b510      	push	{r4, lr}
  /* USER CODE BEGIN EXTI2_IRQn 0 */

  /* USER CODE END EXTI2_IRQn 0 */
  HAL_GPIO_EXTI_IRQHandler(B6_Pin);
 8001d7e:	2004      	movs	r0, #4
 8001d80:	f000 fc04 	bl	800258c <HAL_GPIO_EXTI_IRQHandler>
  /* USER CODE BEGIN EXTI2_IRQn 1 */
  {
    uint32_t idr = GPIOB->IDR;
 8001d84:	f44f 6340 	mov.w	r3, #3072	@ 0xc00
 8001d88:	f2c4 0301 	movt	r3, #16385	@ 0x4001
 8001d8c:	689a      	ldr	r2, [r3, #8]
        ((!!(idr & B3_Pin)) << BUT_UP_POS)    |
        ((!!(idr & B4_Pin)) << BUT_DOWN_POS)  |
        ((!!(idr & B5_Pin)) << BUT_RIGHT_POS) |
        ((!!(idr & B6_Pin)) << BUT_OFF_POS)
    );
    buttonState = s;
 8001d8e:	f240 211c 	movw	r1, #540	@ 0x21c
 8001d92:	f2c2 0100 	movt	r1, #8192	@ 0x2000
        ((!!(idr & B2_Pin)) << BUT_ON_POS)    |
 8001d96:	f3c2 3040 	ubfx	r0, r2, #13, #1
        ((!!(idr & B3_Pin)) << BUT_UP_POS)    |
 8001d9a:	f3c2 3380 	ubfx	r3, r2, #14, #1
        ((!!(idr & B2_Pin)) << BUT_ON_POS)    |
 8001d9e:	009b      	lsls	r3, r3, #2
 8001da0:	ea43 0340 	orr.w	r3, r3, r0, lsl #1
        ((!!(idr & B1_Pin)) << BUT_LEFT_POS)  |
 8001da4:	f3c2 3000 	ubfx	r0, r2, #12, #1
        ((!!(idr & B2_Pin)) << BUT_ON_POS)    |
 8001da8:	4303      	orrs	r3, r0
        ((!!(idr & B4_Pin)) << BUT_DOWN_POS)  |
 8001daa:	f3c2 20c0 	ubfx	r0, r2, #11, #1
        ((!!(idr & B3_Pin)) << BUT_UP_POS)    |
 8001dae:	ea43 03c0 	orr.w	r3, r3, r0, lsl #3
        ((!!(idr & B5_Pin)) << BUT_RIGHT_POS) |
 8001db2:	f3c2 2080 	ubfx	r0, r2, #10, #1
        ((!!(idr & B4_Pin)) << BUT_DOWN_POS)  |
 8001db6:	ea43 1300 	orr.w	r3, r3, r0, lsl #4
        ((!!(idr & B6_Pin)) << BUT_OFF_POS)
 8001dba:	f3c2 0280 	ubfx	r2, r2, #2, #1
        ((!!(idr & B5_Pin)) << BUT_RIGHT_POS) |
 8001dbe:	ea43 1342 	orr.w	r3, r3, r2, lsl #5
    buttonState = s;
 8001dc2:	700b      	strb	r3, [r1, #0]
    uiNeedsClear = 1; /* UI refresh: clear once in lcd_handle */
 8001dc4:	f240 231a 	movw	r3, #538	@ 0x21a
 8001dc8:	f2c2 0300 	movt	r3, #8192	@ 0x2000
 8001dcc:	2401      	movs	r4, #1
 8001dce:	701c      	strb	r4, [r3, #0]
    HAL_TIM_Base_Start_IT(&htim7); // IT = interrupt
 8001dd0:	f240 2068 	movw	r0, #616	@ 0x268
 8001dd4:	f2c2 0000 	movt	r0, #8192	@ 0x2000
 8001dd8:	f001 f943 	bl	8003062 <HAL_TIM_Base_Start_IT>
	HAL_GPIO_WritePin(BUZZER_GPIO_Port, BUZZER_Pin, 1);
 8001ddc:	4622      	mov	r2, r4
 8001dde:	f44f 4100 	mov.w	r1, #32768	@ 0x8000
 8001de2:	f44f 5080 	mov.w	r0, #4096	@ 0x1000
 8001de6:	f2c4 0001 	movt	r0, #16385	@ 0x4001
 8001dea:	f000 fbbf 	bl	800256c <HAL_GPIO_WritePin>
  }

  /* USER CODE END EXTI2_IRQn 1 */
}
 8001dee:	bd10      	pop	{r4, pc}

08001df0 <DMA1_Channel1_IRQHandler>:

/**
  * @brief This function handles DMA1 channel1 global interrupt.
  */
void DMA1_Channel1_IRQHandler(void)
{
 8001df0:	b510      	push	{r4, lr}
  /* USER CODE BEGIN DMA1_Channel1_IRQn 0 */
	uint8_t adcChannelCounter = 0;
	uint16_t dcOffset = 1985;

	adcBuffer[adcChannelCounter] = (q15_t)(((int32_t)(adc1Buffer[adcChannelCounter] - dcOffset)
 8001df2:	f240 11fc 	movw	r1, #508	@ 0x1fc
 8001df6:	f2c2 0100 	movt	r1, #8192	@ 0x2000
 8001dfa:	f240 2e0c 	movw	lr, #524	@ 0x20c
 8001dfe:	f2c2 0e00 	movt	lr, #8192	@ 0x2000
 8001e02:	f9be 3000 	ldrsh.w	r3, [lr]
 8001e06:	f2a3 73c1 	subw	r3, r3, #1985	@ 0x7c1
			* adcGain[adcChannelCounter]) >> 15);
 8001e0a:	f240 0084 	movw	r0, #132	@ 0x84
 8001e0e:	f2c2 0000 	movt	r0, #8192	@ 0x2000
 8001e12:	f9b0 2000 	ldrsh.w	r2, [r0]
 8001e16:	fb02 f303 	mul.w	r3, r2, r3
 8001e1a:	13db      	asrs	r3, r3, #15
	adcBuffer[adcChannelCounter] = (q15_t)(((int32_t)(adc1Buffer[adcChannelCounter] - dcOffset)
 8001e1c:	800b      	strh	r3, [r1, #0]
	adcChannelCounter++;

	while(adcChannelCounter < ENUM_ADC_CHANNEL_COUNT)
 8001e1e:	4672      	mov	r2, lr
 8001e20:	468c      	mov	ip, r1
 8001e22:	f10e 0e0c 	add.w	lr, lr, #12
	{
		adcBuffer[adcChannelCounter] = (q15_t)(((int32_t)(adc1Buffer[adcChannelCounter]) * adcGain[adcChannelCounter]) >> 15);
 8001e26:	f932 3f02 	ldrsh.w	r3, [r2, #2]!
 8001e2a:	f930 4f02 	ldrsh.w	r4, [r0, #2]!
 8001e2e:	fb04 f303 	mul.w	r3, r4, r3
 8001e32:	13db      	asrs	r3, r3, #15
 8001e34:	f821 3f02 	strh.w	r3, [r1, #2]!
	while(adcChannelCounter < ENUM_ADC_CHANNEL_COUNT)
 8001e38:	4572      	cmp	r2, lr
 8001e3a:	d1f4      	bne.n	8001e26 <DMA1_Channel1_IRQHandler+0x36>
		adcChannelCounter++;
	}
	adcChannelCounter = 1;
	while(adcChannelCounter < ENUM_ADC_CHANNEL_COUNT)
	{
		adcMeanSum[adcChannelCounter - 1] = adcMeanSum[adcChannelCounter - 1] - adcMeanBuffer[adcChannelCounter - 1][adcMeanBufferPo];
 8001e3c:	f240 1300 	movw	r3, #256	@ 0x100
 8001e40:	f2c2 0300 	movt	r3, #8192	@ 0x2000
 8001e44:	781c      	ldrb	r4, [r3, #0]
 8001e46:	f240 1004 	movw	r0, #260	@ 0x104
 8001e4a:	f2c2 0000 	movt	r0, #8192	@ 0x2000
 8001e4e:	f240 1e1c 	movw	lr, #284	@ 0x11c
 8001e52:	f2c2 0e00 	movt	lr, #8192	@ 0x2000
 8001e56:	eb0e 0e44 	add.w	lr, lr, r4, lsl #1
 8001e5a:	2300      	movs	r3, #0
 8001e5c:	6802      	ldr	r2, [r0, #0]
 8001e5e:	f93e 1013 	ldrsh.w	r1, [lr, r3, lsl #1]
 8001e62:	1a51      	subs	r1, r2, r1
		adcMeanBuffer[adcChannelCounter - 1][adcMeanBufferPo] = adcBuffer[adcChannelCounter];
 8001e64:	f93c 2f02 	ldrsh.w	r2, [ip, #2]!
 8001e68:	f82e 2013 	strh.w	r2, [lr, r3, lsl #1]
		adcMeanSum[adcChannelCounter - 1] = adcMeanSum[adcChannelCounter - 1] + adcMeanBuffer[adcChannelCounter - 1][adcMeanBufferPo];
 8001e6c:	440a      	add	r2, r1
 8001e6e:	f840 2b04 	str.w	r2, [r0], #4
	while(adcChannelCounter < ENUM_ADC_CHANNEL_COUNT)
 8001e72:	3310      	adds	r3, #16
 8001e74:	2b60      	cmp	r3, #96	@ 0x60
 8001e76:	d1f1      	bne.n	8001e5c <DMA1_Channel1_IRQHandler+0x6c>
		adcChannelCounter++;
	}

	adcMeanBufferPo++;
 8001e78:	1c63      	adds	r3, r4, #1
 8001e7a:	b2db      	uxtb	r3, r3
	if (adcMeanBufferPo >= ADC_MEAN_BUFFER_SIZE)
 8001e7c:	2b10      	cmp	r3, #16
 8001e7e:	bf28      	it	cs
 8001e80:	2300      	movcs	r3, #0
	adcMeanBufferPo++;
 8001e82:	f240 1200 	movw	r2, #256	@ 0x100
 8001e86:	f2c2 0200 	movt	r2, #8192	@ 0x2000
 8001e8a:	7013      	strb	r3, [r2, #0]
	{
		adcMeanBufferPo = 0;
	}

	adcRmsSum = adcRmsSum - adcRmsBuffer[adcRmsBufferPo];
 8001e8c:	f240 03a0 	movw	r3, #160	@ 0xa0
 8001e90:	f2c2 0300 	movt	r3, #8192	@ 0x2000
 8001e94:	f893 c000 	ldrb.w	ip, [r3]
    adcRmsBuffer[adcRmsBufferPo] = (int32_t)adcBuffer[listVAC] * (int32_t)adcBuffer[listVAC];
 8001e98:	f240 13fc 	movw	r3, #508	@ 0x1fc
 8001e9c:	f2c2 0300 	movt	r3, #8192	@ 0x2000
 8001ea0:	f9b3 2000 	ldrsh.w	r2, [r3]
 8001ea4:	fb02 f202 	mul.w	r2, r2, r2
	adcRmsSum = adcRmsSum - adcRmsBuffer[adcRmsBufferPo];
 8001ea8:	f240 01a8 	movw	r1, #168	@ 0xa8
 8001eac:	f2c2 0100 	movt	r1, #8192	@ 0x2000
 8001eb0:	f240 03b0 	movw	r3, #176	@ 0xb0
 8001eb4:	f2c2 0300 	movt	r3, #8192	@ 0x2000
 8001eb8:	f853 402c 	ldr.w	r4, [r3, ip, lsl #2]
 8001ebc:	680b      	ldr	r3, [r1, #0]
 8001ebe:	6848      	ldr	r0, [r1, #4]
 8001ec0:	1b1b      	subs	r3, r3, r4
 8001ec2:	eb60 70e4 	sbc.w	r0, r0, r4, asr #31
	adcRmsSum = adcRmsSum + adcRmsBuffer[adcRmsBufferPo];
 8001ec6:	189b      	adds	r3, r3, r2
 8001ec8:	eb40 70e2 	adc.w	r0, r0, r2, asr #31
	adcRmsBufferPo++;
 8001ecc:	f10c 0101 	add.w	r1, ip, #1
 8001ed0:	b2c9      	uxtb	r1, r1
	if (adcRmsBufferPo >= ADC_RMS_BUFFER_SIZE)
 8001ed2:	2914      	cmp	r1, #20
 8001ed4:	bf28      	it	cs
 8001ed6:	2100      	movcs	r1, #0
    adcRmsBuffer[adcRmsBufferPo] = (int32_t)adcBuffer[listVAC] * (int32_t)adcBuffer[listVAC];
 8001ed8:	f240 04b0 	movw	r4, #176	@ 0xb0
 8001edc:	f2c2 0400 	movt	r4, #8192	@ 0x2000
 8001ee0:	f844 202c 	str.w	r2, [r4, ip, lsl #2]
	adcRmsSum = adcRmsSum + adcRmsBuffer[adcRmsBufferPo];
 8001ee4:	f240 02a8 	movw	r2, #168	@ 0xa8
 8001ee8:	f2c2 0200 	movt	r2, #8192	@ 0x2000
 8001eec:	6013      	str	r3, [r2, #0]
 8001eee:	6050      	str	r0, [r2, #4]
	adcRmsBufferPo++;
 8001ef0:	f240 03a0 	movw	r3, #160	@ 0xa0
 8001ef4:	f2c2 0300 	movt	r3, #8192	@ 0x2000
 8001ef8:	7019      	strb	r1, [r3, #0]
		adcRmsBufferPo = 0;
	}

  /* USER CODE END DMA1_Channel1_IRQn 0 */
  /* USER CODE BEGIN DMA1_Channel1_IRQn 1 */
	DMA1->IFCR |= DMA_IFCR_CGIF1;
 8001efa:	2300      	movs	r3, #0
 8001efc:	f2c4 0302 	movt	r3, #16386	@ 0x4002
 8001f00:	685a      	ldr	r2, [r3, #4]
 8001f02:	f042 0201 	orr.w	r2, r2, #1
 8001f06:	605a      	str	r2, [r3, #4]
  /* USER CODE END DMA1_Channel1_IRQn 1 */
}
 8001f08:	bd10      	pop	{r4, pc}

08001f0a <ADC1_IRQHandler>:

  /* USER CODE END ADC1_IRQn 0 */
  /* USER CODE BEGIN ADC1_IRQn 1 */

  /* USER CODE END ADC1_IRQn 1 */
}
 8001f0a:	4770      	bx	lr

08001f0c <TIM3_IRQHandler>:

/**
  * @brief This function handles TIM3 global interrupt.
  */
void TIM3_IRQHandler(void)
{
 8001f0c:	b508      	push	{r3, lr}
  /* USER CODE BEGIN TIM3_IRQn 0 */

  /* USER CODE END TIM3_IRQn 0 */
  HAL_TIM_IRQHandler(&htim3);
 8001f0e:	f240 20b0 	movw	r0, #688	@ 0x2b0
 8001f12:	f2c2 0000 	movt	r0, #8192	@ 0x2000
 8001f16:	f001 f8e7 	bl	80030e8 <HAL_TIM_IRQHandler>
  /* USER CODE BEGIN TIM3_IRQn 1 */

  /* USER CODE END TIM3_IRQn 1 */
}
 8001f1a:	bd08      	pop	{r3, pc}

08001f1c <EXTI15_10_IRQHandler>:

/**
  * @brief This function handles EXTI line[15:10] interrupts.
  */
void EXTI15_10_IRQHandler(void)
{
 8001f1c:	b510      	push	{r4, lr}
  /* USER CODE BEGIN EXTI15_10_IRQn 0 */

  /* USER CODE END EXTI15_10_IRQn 0 */
  HAL_GPIO_EXTI_IRQHandler(B5_Pin);
 8001f1e:	f44f 6080 	mov.w	r0, #1024	@ 0x400
 8001f22:	f000 fb33 	bl	800258c <HAL_GPIO_EXTI_IRQHandler>
  HAL_GPIO_EXTI_IRQHandler(B4_Pin);
 8001f26:	f44f 6000 	mov.w	r0, #2048	@ 0x800
 8001f2a:	f000 fb2f 	bl	800258c <HAL_GPIO_EXTI_IRQHandler>
  HAL_GPIO_EXTI_IRQHandler(B1_Pin);
 8001f2e:	f44f 5080 	mov.w	r0, #4096	@ 0x1000
 8001f32:	f000 fb2b 	bl	800258c <HAL_GPIO_EXTI_IRQHandler>
  HAL_GPIO_EXTI_IRQHandler(B2_Pin);
 8001f36:	f44f 5000 	mov.w	r0, #8192	@ 0x2000
 8001f3a:	f000 fb27 	bl	800258c <HAL_GPIO_EXTI_IRQHandler>
  HAL_GPIO_EXTI_IRQHandler(B3_Pin);
 8001f3e:	f44f 4080 	mov.w	r0, #16384	@ 0x4000
 8001f42:	f000 fb23 	bl	800258c <HAL_GPIO_EXTI_IRQHandler>
  /* USER CODE BEGIN EXTI15_10_IRQn 1 */
    uint32_t idr = GPIOB->IDR;
 8001f46:	f44f 6340 	mov.w	r3, #3072	@ 0xc00
 8001f4a:	f2c4 0301 	movt	r3, #16385	@ 0x4001
 8001f4e:	689a      	ldr	r2, [r3, #8]
        ((!!(idr & B3_Pin)) << BUT_UP_POS)    |
        ((!!(idr & B4_Pin)) << BUT_DOWN_POS)  |
        ((!!(idr & B5_Pin)) << BUT_RIGHT_POS) |
        ((!!(idr & B6_Pin)) << BUT_OFF_POS)
    );
    buttonState = s;
 8001f50:	f240 211c 	movw	r1, #540	@ 0x21c
 8001f54:	f2c2 0100 	movt	r1, #8192	@ 0x2000
        ((!!(idr & B2_Pin)) << BUT_ON_POS)    |
 8001f58:	f3c2 3040 	ubfx	r0, r2, #13, #1
        ((!!(idr & B3_Pin)) << BUT_UP_POS)    |
 8001f5c:	f3c2 3380 	ubfx	r3, r2, #14, #1
        ((!!(idr & B2_Pin)) << BUT_ON_POS)    |
 8001f60:	009b      	lsls	r3, r3, #2
 8001f62:	ea43 0340 	orr.w	r3, r3, r0, lsl #1
        ((!!(idr & B1_Pin)) << BUT_LEFT_POS)  |
 8001f66:	f3c2 3000 	ubfx	r0, r2, #12, #1
        ((!!(idr & B2_Pin)) << BUT_ON_POS)    |
 8001f6a:	4303      	orrs	r3, r0
        ((!!(idr & B4_Pin)) << BUT_DOWN_POS)  |
 8001f6c:	f3c2 20c0 	ubfx	r0, r2, #11, #1
        ((!!(idr & B3_Pin)) << BUT_UP_POS)    |
 8001f70:	ea43 03c0 	orr.w	r3, r3, r0, lsl #3
        ((!!(idr & B5_Pin)) << BUT_RIGHT_POS) |
 8001f74:	f3c2 2080 	ubfx	r0, r2, #10, #1
        ((!!(idr & B4_Pin)) << BUT_DOWN_POS)  |
 8001f78:	ea43 1300 	orr.w	r3, r3, r0, lsl #4
        ((!!(idr & B6_Pin)) << BUT_OFF_POS)
 8001f7c:	f3c2 0280 	ubfx	r2, r2, #2, #1
        ((!!(idr & B5_Pin)) << BUT_RIGHT_POS) |
 8001f80:	ea43 1342 	orr.w	r3, r3, r2, lsl #5
    buttonState = s;
 8001f84:	700b      	strb	r3, [r1, #0]
    uiNeedsClear = 1; /* UI refresh: clear once in lcd_handle */
 8001f86:	f240 231a 	movw	r3, #538	@ 0x21a
 8001f8a:	f2c2 0300 	movt	r3, #8192	@ 0x2000
 8001f8e:	2401      	movs	r4, #1
 8001f90:	701c      	strb	r4, [r3, #0]
    HAL_TIM_Base_Start_IT(&htim7); // IT = interrupt
 8001f92:	f240 2068 	movw	r0, #616	@ 0x268
 8001f96:	f2c2 0000 	movt	r0, #8192	@ 0x2000
 8001f9a:	f001 f862 	bl	8003062 <HAL_TIM_Base_Start_IT>
	HAL_GPIO_WritePin(BUZZER_GPIO_Port, BUZZER_Pin, 1);
 8001f9e:	4622      	mov	r2, r4
 8001fa0:	f44f 4100 	mov.w	r1, #32768	@ 0x8000
 8001fa4:	f44f 5080 	mov.w	r0, #4096	@ 0x1000
 8001fa8:	f2c4 0001 	movt	r0, #16385	@ 0x4001
 8001fac:	f000 fade 	bl	800256c <HAL_GPIO_WritePin>
  /* USER CODE END EXTI15_10_IRQn 1 */
}
 8001fb0:	bd10      	pop	{r4, pc}

08001fb2 <TIM7_IRQHandler>:

/**
  * @brief This function handles TIM7 global interrupt.
  */
void TIM7_IRQHandler(void)
{
 8001fb2:	b508      	push	{r3, lr}
  /* USER CODE BEGIN TIM7_IRQn 0 */
	HAL_GPIO_WritePin(BUZZER_GPIO_Port, BUZZER_Pin, 0);
 8001fb4:	2200      	movs	r2, #0
 8001fb6:	f44f 4100 	mov.w	r1, #32768	@ 0x8000
 8001fba:	f44f 5080 	mov.w	r0, #4096	@ 0x1000
 8001fbe:	f2c4 0001 	movt	r0, #16385	@ 0x4001
 8001fc2:	f000 fad3 	bl	800256c <HAL_GPIO_WritePin>
  /* USER CODE END TIM7_IRQn 0 */
  HAL_TIM_IRQHandler(&htim7);
 8001fc6:	f240 2068 	movw	r0, #616	@ 0x268
 8001fca:	f2c2 0000 	movt	r0, #8192	@ 0x2000
 8001fce:	f001 f88b 	bl	80030e8 <HAL_TIM_IRQHandler>
  /* USER CODE BEGIN TIM7_IRQn 1 */

  /* USER CODE END TIM7_IRQn 1 */
}
 8001fd2:	bd08      	pop	{r3, pc}

08001fd4 <SystemInit>:

  /* Configure the Vector Table location -------------------------------------*/
#if defined(USER_VECT_TAB_ADDRESS)
  SCB->VTOR = VECT_TAB_BASE_ADDRESS | VECT_TAB_OFFSET; /* Vector Table Relocation in Internal SRAM. */
#endif /* USER_VECT_TAB_ADDRESS */
}
 8001fd4:	4770      	bx	lr
	...

08001fd8 <Reset_Handler>:
  .weak Reset_Handler
  .type Reset_Handler, %function
Reset_Handler:

/* Call the clock system initialization function.*/
    bl  SystemInit
 8001fd8:	f7ff fffc 	bl	8001fd4 <SystemInit>

/* Copy the data segment initializers from flash to SRAM */
  ldr r0, =_sdata
 8001fdc:	480b      	ldr	r0, [pc, #44]	@ (800200c <LoopFillZerobss+0xe>)
  ldr r1, =_edata
 8001fde:	490c      	ldr	r1, [pc, #48]	@ (8002010 <LoopFillZerobss+0x12>)
  ldr r2, =_sidata
 8001fe0:	4a0c      	ldr	r2, [pc, #48]	@ (8002014 <LoopFillZerobss+0x16>)
  movs r3, #0
 8001fe2:	2300      	movs	r3, #0
  b LoopCopyDataInit
 8001fe4:	e002      	b.n	8001fec <LoopCopyDataInit>

08001fe6 <CopyDataInit>:

CopyDataInit:
  ldr r4, [r2, r3]
 8001fe6:	58d4      	ldr	r4, [r2, r3]
  str r4, [r0, r3]
 8001fe8:	50c4      	str	r4, [r0, r3]
  adds r3, r3, #4
 8001fea:	3304      	adds	r3, #4

08001fec <LoopCopyDataInit>:

LoopCopyDataInit:
  adds r4, r0, r3
 8001fec:	18c4      	adds	r4, r0, r3
  cmp r4, r1
 8001fee:	428c      	cmp	r4, r1
  bcc CopyDataInit
 8001ff0:	d3f9      	bcc.n	8001fe6 <CopyDataInit>
  
/* Zero fill the bss segment. */
  ldr r2, =_sbss
 8001ff2:	4a09      	ldr	r2, [pc, #36]	@ (8002018 <LoopFillZerobss+0x1a>)
  ldr r4, =_ebss
 8001ff4:	4c09      	ldr	r4, [pc, #36]	@ (800201c <LoopFillZerobss+0x1e>)
  movs r3, #0
 8001ff6:	2300      	movs	r3, #0
  b LoopFillZerobss
 8001ff8:	e001      	b.n	8001ffe <LoopFillZerobss>

08001ffa <FillZerobss>:

FillZerobss:
  str  r3, [r2]
 8001ffa:	6013      	str	r3, [r2, #0]
  adds r2, r2, #4
 8001ffc:	3204      	adds	r2, #4

08001ffe <LoopFillZerobss>:

LoopFillZerobss:
  cmp r2, r4
 8001ffe:	42a2      	cmp	r2, r4
  bcc FillZerobss
 8002000:	d3fb      	bcc.n	8001ffa <FillZerobss>

/* Call static constructors */
    bl __libc_init_array
 8002002:	f001 fc8f 	bl	8003924 <__libc_init_array>
/* Call the application's entry point.*/
  bl main
 8002006:	f7ff f98f 	bl	8001328 <main>
  bx lr
 800200a:	4770      	bx	lr
  ldr r0, =_sdata
 800200c:	20000000 	.word	0x20000000
  ldr r1, =_edata
 8002010:	20000064 	.word	0x20000064
  ldr r2, =_sidata
 8002014:	08003cf8 	.word	0x08003cf8
  ldr r2, =_sbss
 8002018:	20000068 	.word	0x20000068
  ldr r4, =_ebss
 800201c:	2000049c 	.word	0x2000049c

08002020 <CEC_IRQHandler>:
 * @retval : None
*/
    .section .text.Default_Handler,"ax",%progbits
Default_Handler:
Infinite_Loop:
  b Infinite_Loop
 8002020:	e7fe      	b.n	8002020 <CEC_IRQHandler>

08002022 <HAL_InitTick>:
  *       implementation  in user file.
  * @param TickPriority Tick interrupt priority.
  * @retval HAL status
  */
__weak HAL_StatusTypeDef HAL_InitTick(uint32_t TickPriority)
{
 8002022:	b510      	push	{r4, lr}
 8002024:	4604      	mov	r4, r0
  /* Configure the SysTick to have interrupt in 1ms time basis*/
  if (HAL_SYSTICK_Config(SystemCoreClock / (1000U / uwTickFreq)) > 0U)
 8002026:	f240 0208 	movw	r2, #8
 800202a:	f2c2 0200 	movt	r2, #8192	@ 0x2000
 800202e:	f240 030c 	movw	r3, #12
 8002032:	f2c2 0300 	movt	r3, #8192	@ 0x2000
 8002036:	7819      	ldrb	r1, [r3, #0]
 8002038:	f44f 737a 	mov.w	r3, #1000	@ 0x3e8
 800203c:	fbb3 f3f1 	udiv	r3, r3, r1
 8002040:	6810      	ldr	r0, [r2, #0]
 8002042:	fbb0 f0f3 	udiv	r0, r0, r3
 8002046:	f000 f8a0 	bl	800218a <HAL_SYSTICK_Config>
 800204a:	b980      	cbnz	r0, 800206e <HAL_InitTick+0x4c>
  {
    return HAL_ERROR;
  }

  /* Configure the SysTick IRQ priority */
  if (TickPriority < (1UL << __NVIC_PRIO_BITS))
 800204c:	2c0f      	cmp	r4, #15
 800204e:	d901      	bls.n	8002054 <HAL_InitTick+0x32>
    HAL_NVIC_SetPriority(SysTick_IRQn, TickPriority, 0U);
    uwTickPrio = TickPriority;
  }
  else
  {
    return HAL_ERROR;
 8002050:	2001      	movs	r0, #1
 8002052:	e00d      	b.n	8002070 <HAL_InitTick+0x4e>
    HAL_NVIC_SetPriority(SysTick_IRQn, TickPriority, 0U);
 8002054:	2200      	movs	r2, #0
 8002056:	4621      	mov	r1, r4
 8002058:	f04f 30ff 	mov.w	r0, #4294967295
 800205c:	f000 f84e 	bl	80020fc <HAL_NVIC_SetPriority>
    uwTickPrio = TickPriority;
 8002060:	f240 0310 	movw	r3, #16
 8002064:	f2c2 0300 	movt	r3, #8192	@ 0x2000
 8002068:	601c      	str	r4, [r3, #0]
  }

  /* Return function status */
  return HAL_OK;
 800206a:	2000      	movs	r0, #0
 800206c:	e000      	b.n	8002070 <HAL_InitTick+0x4e>
    return HAL_ERROR;
 800206e:	2001      	movs	r0, #1
}
 8002070:	bd10      	pop	{r4, pc}

08002072 <HAL_Init>:
{
 8002072:	b508      	push	{r3, lr}
  HAL_NVIC_SetPriorityGrouping(NVIC_PRIORITYGROUP_4);
 8002074:	2003      	movs	r0, #3
 8002076:	f000 f82e 	bl	80020d6 <HAL_NVIC_SetPriorityGrouping>
  HAL_InitTick(TICK_INT_PRIORITY);
 800207a:	200f      	movs	r0, #15
 800207c:	f7ff ffd1 	bl	8002022 <HAL_InitTick>
  HAL_MspInit();
 8002080:	f7ff fd4a 	bl	8001b18 <HAL_MspInit>
}
 8002084:	2000      	movs	r0, #0
 8002086:	bd08      	pop	{r3, pc}

08002088 <HAL_IncTick>:
  *      implementations in user file.
  * @retval None
  */
__weak void HAL_IncTick(void)
{
  uwTick += uwTickFreq;
 8002088:	f240 3360 	movw	r3, #864	@ 0x360
 800208c:	f2c2 0300 	movt	r3, #8192	@ 0x2000
 8002090:	6819      	ldr	r1, [r3, #0]
 8002092:	f240 020c 	movw	r2, #12
 8002096:	f2c2 0200 	movt	r2, #8192	@ 0x2000
 800209a:	7812      	ldrb	r2, [r2, #0]
 800209c:	440a      	add	r2, r1
 800209e:	601a      	str	r2, [r3, #0]
}
 80020a0:	4770      	bx	lr

080020a2 <HAL_GetTick>:
  *       implementations in user file.
  * @retval tick value
  */
__weak uint32_t HAL_GetTick(void)
{
  return uwTick;
 80020a2:	f240 3360 	movw	r3, #864	@ 0x360
 80020a6:	f2c2 0300 	movt	r3, #8192	@ 0x2000
 80020aa:	6818      	ldr	r0, [r3, #0]
}
 80020ac:	4770      	bx	lr

080020ae <HAL_Delay>:
  *       implementations in user file.
  * @param Delay specifies the delay time length, in milliseconds.
  * @retval None
  */
__weak void HAL_Delay(uint32_t Delay)
{
 80020ae:	b538      	push	{r3, r4, r5, lr}
 80020b0:	4604      	mov	r4, r0
  uint32_t tickstart = HAL_GetTick();
 80020b2:	f7ff fff6 	bl	80020a2 <HAL_GetTick>
 80020b6:	4605      	mov	r5, r0
  uint32_t wait = Delay;

  /* Add a freq to guarantee minimum wait */
  if (wait < HAL_MAX_DELAY)
 80020b8:	f1b4 3fff 	cmp.w	r4, #4294967295
 80020bc:	d005      	beq.n	80020ca <HAL_Delay+0x1c>
  {
    wait += (uint32_t)(uwTickFreq);
 80020be:	f240 030c 	movw	r3, #12
 80020c2:	f2c2 0300 	movt	r3, #8192	@ 0x2000
 80020c6:	781b      	ldrb	r3, [r3, #0]
 80020c8:	441c      	add	r4, r3
  }

  while ((HAL_GetTick() - tickstart) < wait)
 80020ca:	f7ff ffea 	bl	80020a2 <HAL_GetTick>
 80020ce:	1b40      	subs	r0, r0, r5
 80020d0:	42a0      	cmp	r0, r4
 80020d2:	d3fa      	bcc.n	80020ca <HAL_Delay+0x1c>
  {
  }
}
 80020d4:	bd38      	pop	{r3, r4, r5, pc}

080020d6 <HAL_NVIC_SetPriorityGrouping>:
  reg_value  =  SCB->AIRCR;                                                   /* read old register configuration    */
 80020d6:	f44f 426d 	mov.w	r2, #60672	@ 0xed00
 80020da:	f2ce 0200 	movt	r2, #57344	@ 0xe000
 80020de:	68d1      	ldr	r1, [r2, #12]
                (PriorityGroupTmp << SCB_AIRCR_PRIGROUP_Pos) );               /* Insert write key and priority group */
 80020e0:	0203      	lsls	r3, r0, #8
 80020e2:	f403 63e0 	and.w	r3, r3, #1792	@ 0x700
  reg_value &= ~((uint32_t)(SCB_AIRCR_VECTKEY_Msk | SCB_AIRCR_PRIGROUP_Msk)); /* clear bits to change               */
 80020e6:	f421 61e0 	bic.w	r1, r1, #1792	@ 0x700
 80020ea:	0409      	lsls	r1, r1, #16
 80020ec:	0c09      	lsrs	r1, r1, #16
                ((uint32_t)0x5FAUL << SCB_AIRCR_VECTKEY_Pos) |
 80020ee:	430b      	orrs	r3, r1
  reg_value  =  (reg_value                                   |
 80020f0:	f043 63bf 	orr.w	r3, r3, #100139008	@ 0x5f80000
 80020f4:	f443 3300 	orr.w	r3, r3, #131072	@ 0x20000
  SCB->AIRCR =  reg_value;
 80020f8:	60d3      	str	r3, [r2, #12]
  /* Check the parameters */
  assert_param(IS_NVIC_PRIORITY_GROUP(PriorityGroup));
  
  /* Set the PRIGROUP[10:8] bits according to the PriorityGroup parameter value */
  NVIC_SetPriorityGrouping(PriorityGroup);
}
 80020fa:	4770      	bx	lr

080020fc <HAL_NVIC_SetPriority>:
  *         This parameter can be a value between 0 and 15
  *         A lower priority value indicates a higher priority.          
  * @retval None
  */
void HAL_NVIC_SetPriority(IRQn_Type IRQn, uint32_t PreemptPriority, uint32_t SubPriority)
{ 
 80020fc:	b500      	push	{lr}
  return ((uint32_t)((SCB->AIRCR & SCB_AIRCR_PRIGROUP_Msk) >> SCB_AIRCR_PRIGROUP_Pos));
 80020fe:	f44f 436d 	mov.w	r3, #60672	@ 0xed00
 8002102:	f2ce 0300 	movt	r3, #57344	@ 0xe000
 8002106:	68db      	ldr	r3, [r3, #12]
 8002108:	f3c3 2302 	ubfx	r3, r3, #8, #3
  PreemptPriorityBits = ((7UL - PriorityGroupTmp) > (uint32_t)(__NVIC_PRIO_BITS)) ? (uint32_t)(__NVIC_PRIO_BITS) : (uint32_t)(7UL - PriorityGroupTmp);
 800210c:	f1c3 0c07 	rsb	ip, r3, #7
 8002110:	f1bc 0f04 	cmp.w	ip, #4
 8002114:	bf28      	it	cs
 8002116:	f04f 0c04 	movcs.w	ip, #4
  SubPriorityBits     = ((PriorityGroupTmp + (uint32_t)(__NVIC_PRIO_BITS)) < (uint32_t)7UL) ? (uint32_t)0UL : (uint32_t)((PriorityGroupTmp - 7UL) + (uint32_t)(__NVIC_PRIO_BITS));
 800211a:	f103 0e04 	add.w	lr, r3, #4
 800211e:	f1be 0f06 	cmp.w	lr, #6
 8002122:	bf8c      	ite	hi
 8002124:	3b03      	subhi	r3, #3
 8002126:	2300      	movls	r3, #0
           ((PreemptPriority & (uint32_t)((1UL << (PreemptPriorityBits)) - 1UL)) << SubPriorityBits) |
 8002128:	f04f 3eff 	mov.w	lr, #4294967295
 800212c:	fa0e fc0c 	lsl.w	ip, lr, ip
 8002130:	ea21 010c 	bic.w	r1, r1, ip
 8002134:	4099      	lsls	r1, r3
           ((SubPriority     & (uint32_t)((1UL << (SubPriorityBits    )) - 1UL)))
 8002136:	fa0e fe03 	lsl.w	lr, lr, r3
 800213a:	ea22 020e 	bic.w	r2, r2, lr
           ((PreemptPriority & (uint32_t)((1UL << (PreemptPriorityBits)) - 1UL)) << SubPriorityBits) |
 800213e:	4311      	orrs	r1, r2
  if ((int32_t)(IRQn) >= 0)
 8002140:	2800      	cmp	r0, #0
 8002142:	db09      	blt.n	8002158 <HAL_NVIC_SetPriority+0x5c>
    NVIC->IP[((uint32_t)IRQn)]               = (uint8_t)((priority << (8U - __NVIC_PRIO_BITS)) & (uint32_t)0xFFUL);
 8002144:	0109      	lsls	r1, r1, #4
 8002146:	b2c9      	uxtb	r1, r1
 8002148:	f100 4060 	add.w	r0, r0, #3758096384	@ 0xe0000000
 800214c:	f500 4061 	add.w	r0, r0, #57600	@ 0xe100
 8002150:	f880 1300 	strb.w	r1, [r0, #768]	@ 0x300
  assert_param(IS_NVIC_PREEMPTION_PRIORITY(PreemptPriority));
  
  prioritygroup = NVIC_GetPriorityGrouping();
  
  NVIC_SetPriority(IRQn, NVIC_EncodePriority(prioritygroup, PreemptPriority, SubPriority));
}
 8002154:	f85d fb04 	ldr.w	pc, [sp], #4
    SCB->SHP[(((uint32_t)IRQn) & 0xFUL)-4UL] = (uint8_t)((priority << (8U - __NVIC_PRIO_BITS)) & (uint32_t)0xFFUL);
 8002158:	f000 000f 	and.w	r0, r0, #15
 800215c:	0109      	lsls	r1, r1, #4
 800215e:	b2c9      	uxtb	r1, r1
 8002160:	f64e 43fc 	movw	r3, #60668	@ 0xecfc
 8002164:	f2ce 0300 	movt	r3, #57344	@ 0xe000
 8002168:	4403      	add	r3, r0
 800216a:	7619      	strb	r1, [r3, #24]
 800216c:	e7f2      	b.n	8002154 <HAL_NVIC_SetPriority+0x58>

0800216e <HAL_NVIC_EnableIRQ>:
  if ((int32_t)(IRQn) >= 0)
 800216e:	2800      	cmp	r0, #0
 8002170:	db0a      	blt.n	8002188 <HAL_NVIC_EnableIRQ+0x1a>
    NVIC->ISER[(((uint32_t)IRQn) >> 5UL)] = (uint32_t)(1UL << (((uint32_t)IRQn) & 0x1FUL));
 8002172:	0941      	lsrs	r1, r0, #5
 8002174:	f000 001f 	and.w	r0, r0, #31
 8002178:	2301      	movs	r3, #1
 800217a:	4083      	lsls	r3, r0
 800217c:	f44f 4261 	mov.w	r2, #57600	@ 0xe100
 8002180:	f2ce 0200 	movt	r2, #57344	@ 0xe000
 8002184:	f842 3021 	str.w	r3, [r2, r1, lsl #2]
  /* Check the parameters */
  assert_param(IS_NVIC_DEVICE_IRQ(IRQn));

  /* Enable interrupt */
  NVIC_EnableIRQ(IRQn);
}
 8002188:	4770      	bx	lr

0800218a <HAL_SYSTICK_Config>:
           function <b>SysTick_Config</b> is not included. In this case, the file <b><i>device</i>.h</b>
           must contain a vendor-specific implementation of this function.
 */
__STATIC_INLINE uint32_t SysTick_Config(uint32_t ticks)
{
  if ((ticks - 1UL) > SysTick_LOAD_RELOAD_Msk)
 800218a:	3801      	subs	r0, #1
 800218c:	f1b0 7f80 	cmp.w	r0, #16777216	@ 0x1000000
 8002190:	d20e      	bcs.n	80021b0 <HAL_SYSTICK_Config+0x26>
  {
    return (1UL);                                                   /* Reload value impossible */
  }

  SysTick->LOAD  = (uint32_t)(ticks - 1UL);                         /* set reload register */
 8002192:	f04f 23e0 	mov.w	r3, #3758153728	@ 0xe000e000
 8002196:	6158      	str	r0, [r3, #20]
    SCB->SHP[(((uint32_t)IRQn) & 0xFUL)-4UL] = (uint8_t)((priority << (8U - __NVIC_PRIO_BITS)) & (uint32_t)0xFFUL);
 8002198:	f44f 426d 	mov.w	r2, #60672	@ 0xed00
 800219c:	f2ce 0200 	movt	r2, #57344	@ 0xe000
 80021a0:	21f0      	movs	r1, #240	@ 0xf0
 80021a2:	f882 1023 	strb.w	r1, [r2, #35]	@ 0x23
  NVIC_SetPriority (SysTick_IRQn, (1UL << __NVIC_PRIO_BITS) - 1UL); /* set Priority for Systick Interrupt */
  SysTick->VAL   = 0UL;                                             /* Load the SysTick Counter Value */
 80021a6:	2000      	movs	r0, #0
 80021a8:	6198      	str	r0, [r3, #24]
  SysTick->CTRL  = SysTick_CTRL_CLKSOURCE_Msk |
 80021aa:	2207      	movs	r2, #7
 80021ac:	611a      	str	r2, [r3, #16]
                   SysTick_CTRL_TICKINT_Msk   |
                   SysTick_CTRL_ENABLE_Msk;                         /* Enable SysTick IRQ and SysTick Timer */
  return (0UL);                                                     /* Function successful */
 80021ae:	4770      	bx	lr
    return (1UL);                                                   /* Reload value impossible */
 80021b0:	2001      	movs	r0, #1
  *                  - 1  Function failed.
  */
uint32_t HAL_SYSTICK_Config(uint32_t TicksNumb)
{
   return SysTick_Config(TicksNumb);
}
 80021b2:	4770      	bx	lr

080021b4 <HAL_DAC_Init>:
  * @retval HAL status
  */
HAL_StatusTypeDef HAL_DAC_Init(DAC_HandleTypeDef *hdac)
{
  /* Check the DAC peripheral handle */
  if (hdac == NULL)
 80021b4:	b170      	cbz	r0, 80021d4 <HAL_DAC_Init+0x20>
{
 80021b6:	b510      	push	{r4, lr}
 80021b8:	4604      	mov	r4, r0
    return HAL_ERROR;
  }
  /* Check the parameters */
  assert_param(IS_DAC_ALL_INSTANCE(hdac->Instance));

  if (hdac->State == HAL_DAC_STATE_RESET)
 80021ba:	7903      	ldrb	r3, [r0, #4]
 80021bc:	b133      	cbz	r3, 80021cc <HAL_DAC_Init+0x18>
    HAL_DAC_MspInit(hdac);
#endif /* USE_HAL_DAC_REGISTER_CALLBACKS */
  }

  /* Initialize the DAC state*/
  hdac->State = HAL_DAC_STATE_BUSY;
 80021be:	2302      	movs	r3, #2
 80021c0:	7123      	strb	r3, [r4, #4]

  /* Set DAC error code to none */
  hdac->ErrorCode = HAL_DAC_ERROR_NONE;
 80021c2:	2000      	movs	r0, #0
 80021c4:	6120      	str	r0, [r4, #16]

  /* Initialize the DAC state*/
  hdac->State = HAL_DAC_STATE_READY;
 80021c6:	2301      	movs	r3, #1
 80021c8:	7123      	strb	r3, [r4, #4]

  /* Return function status */
  return HAL_OK;
}
 80021ca:	bd10      	pop	{r4, pc}
    hdac->Lock = HAL_UNLOCKED;
 80021cc:	7143      	strb	r3, [r0, #5]
    HAL_DAC_MspInit(hdac);
 80021ce:	f7ff fccf 	bl	8001b70 <HAL_DAC_MspInit>
 80021d2:	e7f4      	b.n	80021be <HAL_DAC_Init+0xa>
    return HAL_ERROR;
 80021d4:	2001      	movs	r0, #1
}
 80021d6:	4770      	bx	lr

080021d8 <HAL_DAC_Start>:
  * @retval HAL status
  */
HAL_StatusTypeDef HAL_DAC_Start(DAC_HandleTypeDef *hdac, uint32_t Channel)
{
  /* Check the DAC peripheral handle */
  if (hdac == NULL)
 80021d8:	b380      	cbz	r0, 800223c <HAL_DAC_Start+0x64>
 80021da:	4603      	mov	r3, r0

  /* Check the parameters */
  assert_param(IS_DAC_CHANNEL(Channel));

  /* Process locked */
  __HAL_LOCK(hdac);
 80021dc:	7942      	ldrb	r2, [r0, #5]
 80021de:	2a01      	cmp	r2, #1
 80021e0:	d02e      	beq.n	8002240 <HAL_DAC_Start+0x68>
{
 80021e2:	b410      	push	{r4}
  __HAL_LOCK(hdac);
 80021e4:	2201      	movs	r2, #1
 80021e6:	7142      	strb	r2, [r0, #5]

  /* Change DAC state */
  hdac->State = HAL_DAC_STATE_BUSY;
 80021e8:	2002      	movs	r0, #2
 80021ea:	7118      	strb	r0, [r3, #4]

  /* Enable the Peripheral */
  __HAL_DAC_ENABLE(hdac, Channel);
 80021ec:	6818      	ldr	r0, [r3, #0]
 80021ee:	6804      	ldr	r4, [r0, #0]
 80021f0:	f001 0c10 	and.w	ip, r1, #16
 80021f4:	fa02 f20c 	lsl.w	r2, r2, ip
 80021f8:	4322      	orrs	r2, r4
 80021fa:	6002      	str	r2, [r0, #0]

  if (Channel == DAC_CHANNEL_1)
 80021fc:	b981      	cbnz	r1, 8002220 <HAL_DAC_Start+0x48>
  {
    /* Check if software trigger enabled */
    if ((hdac->Instance->CR & (DAC_CR_TEN1 | DAC_CR_TSEL1)) == DAC_TRIGGER_SOFTWARE)
 80021fe:	6819      	ldr	r1, [r3, #0]
 8002200:	680a      	ldr	r2, [r1, #0]
 8002202:	f002 023c 	and.w	r2, r2, #60	@ 0x3c
 8002206:	2a3c      	cmp	r2, #60	@ 0x3c
 8002208:	d005      	beq.n	8002216 <HAL_DAC_Start+0x3e>
    }
  }


  /* Change DAC state */
  hdac->State = HAL_DAC_STATE_READY;
 800220a:	2201      	movs	r2, #1
 800220c:	711a      	strb	r2, [r3, #4]

  /* Process unlocked */
  __HAL_UNLOCK(hdac);
 800220e:	2000      	movs	r0, #0
 8002210:	7158      	strb	r0, [r3, #5]

  /* Return function status */
  return HAL_OK;
}
 8002212:	bc10      	pop	{r4}
 8002214:	4770      	bx	lr
      SET_BIT(hdac->Instance->SWTRIGR, DAC_SWTRIGR_SWTRIG1);
 8002216:	684a      	ldr	r2, [r1, #4]
 8002218:	f042 0201 	orr.w	r2, r2, #1
 800221c:	604a      	str	r2, [r1, #4]
 800221e:	e7f4      	b.n	800220a <HAL_DAC_Start+0x32>
    if ((hdac->Instance->CR & (DAC_CR_TEN2 | DAC_CR_TSEL2)) == (DAC_TRIGGER_SOFTWARE << (Channel & 0x10UL)))
 8002220:	6818      	ldr	r0, [r3, #0]
 8002222:	6801      	ldr	r1, [r0, #0]
 8002224:	f401 1170 	and.w	r1, r1, #3932160	@ 0x3c0000
 8002228:	223c      	movs	r2, #60	@ 0x3c
 800222a:	fa02 f20c 	lsl.w	r2, r2, ip
 800222e:	4291      	cmp	r1, r2
 8002230:	d1eb      	bne.n	800220a <HAL_DAC_Start+0x32>
      SET_BIT(hdac->Instance->SWTRIGR, DAC_SWTRIGR_SWTRIG2);
 8002232:	6842      	ldr	r2, [r0, #4]
 8002234:	f042 0202 	orr.w	r2, r2, #2
 8002238:	6042      	str	r2, [r0, #4]
 800223a:	e7e6      	b.n	800220a <HAL_DAC_Start+0x32>
    return HAL_ERROR;
 800223c:	2001      	movs	r0, #1
 800223e:	4770      	bx	lr
  __HAL_LOCK(hdac);
 8002240:	2002      	movs	r0, #2
}
 8002242:	4770      	bx	lr

08002244 <HAL_DAC_SetValue>:
  *            @arg DAC_ALIGN_12B_R: 12bit right data alignment selected
  * @param  Data Data to be loaded in the selected data holding register.
  * @retval HAL status
  */
HAL_StatusTypeDef HAL_DAC_SetValue(DAC_HandleTypeDef *hdac, uint32_t Channel, uint32_t Alignment, uint32_t Data)
{
 8002244:	b410      	push	{r4}
 8002246:	b083      	sub	sp, #12
  __IO uint32_t tmp = 0UL;
 8002248:	2400      	movs	r4, #0
 800224a:	9401      	str	r4, [sp, #4]

  /* Check the DAC peripheral handle */
  if (hdac == NULL)
 800224c:	b188      	cbz	r0, 8002272 <HAL_DAC_SetValue+0x2e>
  /* Check the parameters */
  assert_param(IS_DAC_CHANNEL(Channel));
  assert_param(IS_DAC_ALIGN(Alignment));
  assert_param(IS_DAC_DATA(Data));

  tmp = (uint32_t)hdac->Instance;
 800224e:	6800      	ldr	r0, [r0, #0]
 8002250:	9001      	str	r0, [sp, #4]
  if (Channel == DAC_CHANNEL_1)
 8002252:	b949      	cbnz	r1, 8002268 <HAL_DAC_SetValue+0x24>
  {
    tmp += DAC_DHR12R1_ALIGNMENT(Alignment);
 8002254:	9901      	ldr	r1, [sp, #4]
 8002256:	3108      	adds	r1, #8
 8002258:	440a      	add	r2, r1
 800225a:	9201      	str	r2, [sp, #4]
    tmp += DAC_DHR12R2_ALIGNMENT(Alignment);
  }


  /* Set the DAC channel selected data holding register */
  *(__IO uint32_t *) tmp = Data;
 800225c:	9a01      	ldr	r2, [sp, #4]
 800225e:	6013      	str	r3, [r2, #0]

  /* Return function status */
  return HAL_OK;
 8002260:	2000      	movs	r0, #0
}
 8002262:	b003      	add	sp, #12
 8002264:	bc10      	pop	{r4}
 8002266:	4770      	bx	lr
    tmp += DAC_DHR12R2_ALIGNMENT(Alignment);
 8002268:	9901      	ldr	r1, [sp, #4]
 800226a:	3114      	adds	r1, #20
 800226c:	440a      	add	r2, r1
 800226e:	9201      	str	r2, [sp, #4]
 8002270:	e7f4      	b.n	800225c <HAL_DAC_SetValue+0x18>
    return HAL_ERROR;
 8002272:	2001      	movs	r0, #1
 8002274:	e7f5      	b.n	8002262 <HAL_DAC_SetValue+0x1e>

08002276 <HAL_DAC_ConfigChannel>:
  HAL_StatusTypeDef status = HAL_OK;
  uint32_t tmpreg1;
  uint32_t tmpreg2;

  /* Check the DAC peripheral handle and channel configuration struct */
  if ((hdac == NULL) || (sConfig == NULL))
 8002276:	b348      	cbz	r0, 80022cc <HAL_DAC_ConfigChannel+0x56>
 8002278:	4684      	mov	ip, r0
 800227a:	b349      	cbz	r1, 80022d0 <HAL_DAC_ConfigChannel+0x5a>
  assert_param(IS_DAC_TRIGGER(sConfig->DAC_Trigger));
  assert_param(IS_DAC_OUTPUT_BUFFER_STATE(sConfig->DAC_OutputBuffer));
  assert_param(IS_DAC_CHANNEL(Channel));

  /* Process locked */
  __HAL_LOCK(hdac);
 800227c:	7943      	ldrb	r3, [r0, #5]
 800227e:	2b01      	cmp	r3, #1
 8002280:	d028      	beq.n	80022d4 <HAL_DAC_ConfigChannel+0x5e>
{
 8002282:	b510      	push	{r4, lr}
  __HAL_LOCK(hdac);
 8002284:	f04f 0e01 	mov.w	lr, #1
 8002288:	f880 e005 	strb.w	lr, [r0, #5]

  /* Change DAC state */
  hdac->State = HAL_DAC_STATE_BUSY;
 800228c:	2302      	movs	r3, #2
 800228e:	7103      	strb	r3, [r0, #4]

  /* Get the DAC CR value */
  tmpreg1 = hdac->Instance->CR;
 8002290:	6804      	ldr	r4, [r0, #0]
 8002292:	6820      	ldr	r0, [r4, #0]
  /* Clear BOFFx, TENx, TSELx, WAVEx and MAMPx bits */
  tmpreg1 &= ~(((uint32_t)(DAC_CR_MAMP1 | DAC_CR_WAVE1 | DAC_CR_TSEL1 | DAC_CR_TEN1 | DAC_CR_BOFF1))
               << (Channel & 0x10UL));
 8002294:	f002 0210 	and.w	r2, r2, #16
 8002298:	f640 73fe 	movw	r3, #4094	@ 0xffe
 800229c:	4093      	lsls	r3, r2
  tmpreg1 &= ~(((uint32_t)(DAC_CR_MAMP1 | DAC_CR_WAVE1 | DAC_CR_TSEL1 | DAC_CR_TEN1 | DAC_CR_BOFF1))
 800229e:	ea20 0003 	bic.w	r0, r0, r3
  /* Configure for the selected DAC channel: buffer output, trigger */
  /* Set TSELx and TENx bits according to DAC_Trigger value */
  /* Set BOFFx bit according to DAC_OutputBuffer value */
  tmpreg2 = (sConfig->DAC_Trigger | sConfig->DAC_OutputBuffer);
 80022a2:	680b      	ldr	r3, [r1, #0]
 80022a4:	6849      	ldr	r1, [r1, #4]
 80022a6:	430b      	orrs	r3, r1
  /* Calculate CR register value depending on DAC_Channel */
  tmpreg1 |= tmpreg2 << (Channel & 0x10UL);
 80022a8:	4093      	lsls	r3, r2
 80022aa:	4303      	orrs	r3, r0
  /* Write to DAC CR */
  hdac->Instance->CR = tmpreg1;
 80022ac:	6023      	str	r3, [r4, #0]
  /* Disable wave generation */
  CLEAR_BIT(hdac->Instance->CR, (DAC_CR_WAVE1 << (Channel & 0x10UL)));
 80022ae:	f8dc 0000 	ldr.w	r0, [ip]
 80022b2:	6803      	ldr	r3, [r0, #0]
 80022b4:	21c0      	movs	r1, #192	@ 0xc0
 80022b6:	fa01 f202 	lsl.w	r2, r1, r2
 80022ba:	ea23 0302 	bic.w	r3, r3, r2
 80022be:	6003      	str	r3, [r0, #0]

  /* Change DAC state */
  hdac->State = HAL_DAC_STATE_READY;
 80022c0:	f88c e004 	strb.w	lr, [ip, #4]

  /* Process unlocked */
  __HAL_UNLOCK(hdac);
 80022c4:	2000      	movs	r0, #0
 80022c6:	f88c 0005 	strb.w	r0, [ip, #5]

  /* Return function status */
  return status;
}
 80022ca:	bd10      	pop	{r4, pc}
    return HAL_ERROR;
 80022cc:	2001      	movs	r0, #1
 80022ce:	4770      	bx	lr
 80022d0:	2001      	movs	r0, #1
 80022d2:	4770      	bx	lr
  __HAL_LOCK(hdac);
 80022d4:	2002      	movs	r0, #2
}
 80022d6:	4770      	bx	lr

080022d8 <HAL_GPIO_Init>:
  * @param  GPIO_Init: pointer to a GPIO_InitTypeDef structure that contains
  *         the configuration information for the specified GPIO peripheral.
  * @retval None
  */
void HAL_GPIO_Init(GPIO_TypeDef  *GPIOx, GPIO_InitTypeDef *GPIO_Init)
{
 80022d8:	e92d 4ff0 	stmdb	sp!, {r4, r5, r6, r7, r8, r9, sl, fp, lr}
 80022dc:	b085      	sub	sp, #20
  assert_param(IS_GPIO_ALL_INSTANCE(GPIOx));
  assert_param(IS_GPIO_PIN(GPIO_Init->Pin));
  assert_param(IS_GPIO_MODE(GPIO_Init->Mode));

  /* Configure the port pins */
  while (((GPIO_Init->Pin) >> position) != 0x00u)
 80022de:	f8d1 9000 	ldr.w	r9, [r1]
 80022e2:	f1b9 0f00 	cmp.w	r9, #0
 80022e6:	f000 8137 	beq.w	8002558 <HAL_GPIO_Init+0x280>
 80022ea:	4606      	mov	r6, r0
 80022ec:	2200      	movs	r2, #0
  uint32_t config = 0x00u;
 80022ee:	4617      	mov	r7, r2
  uint32_t position = 0x00u;
 80022f0:	4613      	mov	r3, r2
  {
    /* Get the IO position */
    ioposition = (0x01uL << position);
 80022f2:	f04f 0c01 	mov.w	ip, #1
      /*--------------------- EXTI Mode Configuration ------------------------*/
      /* Configure the External Interrupt or event for the current IO */
      if ((GPIO_Init->Mode & EXTI_MODE) == EXTI_MODE)
      {
        /* Enable AFIO Clock */
        __HAL_RCC_AFIO_CLK_ENABLE();
 80022f6:	f44f 5e80 	mov.w	lr, #4096	@ 0x1000
 80022fa:	f2c4 0e02 	movt	lr, #16386	@ 0x4002
        temp = AFIO->EXTICR[position >> 2u];
        CLEAR_BIT(temp, (0x0Fu) << (4u * (position & 0x03u)));
        SET_BIT(temp, (GPIO_GET_INDEX(GPIOx)) << (4u * (position & 0x03u)));
 80022fe:	f44f 6400 	mov.w	r4, #2048	@ 0x800
 8002302:	f2c4 0401 	movt	r4, #16385	@ 0x4001
 8002306:	f44f 6540 	mov.w	r5, #3072	@ 0xc00
 800230a:	f2c4 0501 	movt	r5, #16385	@ 0x4001
      configregister = (iocurrent < GPIO_PIN_8) ? &GPIOx->CRL     : &GPIOx->CRH;
 800230e:	3004      	adds	r0, #4
 8002310:	9001      	str	r0, [sp, #4]
 8002312:	46a8      	mov	r8, r5
 8002314:	464d      	mov	r5, r9
 8002316:	e0d1      	b.n	80024bc <HAL_GPIO_Init+0x1e4>
      switch (GPIO_Init->Mode)
 8002318:	f04f 0a00 	mov.w	sl, #0
 800231c:	f2c1 0a22 	movt	sl, #4130	@ 0x1022
 8002320:	4555      	cmp	r5, sl
 8002322:	d024      	beq.n	800236e <HAL_GPIO_Init+0x96>
 8002324:	f04f 0a00 	mov.w	sl, #0
 8002328:	f2c1 0a22 	movt	sl, #4130	@ 0x1022
 800232c:	4555      	cmp	r5, sl
 800232e:	d812      	bhi.n	8002356 <HAL_GPIO_Init+0x7e>
 8002330:	f04f 0a00 	mov.w	sl, #0
 8002334:	f2c1 0a12 	movt	sl, #4114	@ 0x1012
 8002338:	4555      	cmp	r5, sl
 800233a:	d018      	beq.n	800236e <HAL_GPIO_Init+0x96>
 800233c:	f04f 0a00 	mov.w	sl, #0
 8002340:	f2c1 0a21 	movt	sl, #4129	@ 0x1021
 8002344:	4555      	cmp	r5, sl
 8002346:	d012      	beq.n	800236e <HAL_GPIO_Init+0x96>
 8002348:	f04f 0a00 	mov.w	sl, #0
 800234c:	f2c1 0a11 	movt	sl, #4113	@ 0x1011
 8002350:	4555      	cmp	r5, sl
 8002352:	d119      	bne.n	8002388 <HAL_GPIO_Init+0xb0>
 8002354:	e00b      	b.n	800236e <HAL_GPIO_Init+0x96>
 8002356:	f04f 0a00 	mov.w	sl, #0
 800235a:	f2c1 0a31 	movt	sl, #4145	@ 0x1031
 800235e:	4555      	cmp	r5, sl
 8002360:	d005      	beq.n	800236e <HAL_GPIO_Init+0x96>
 8002362:	f04f 0a00 	mov.w	sl, #0
 8002366:	f2c1 0a32 	movt	sl, #4146	@ 0x1032
 800236a:	4555      	cmp	r5, sl
 800236c:	d10c      	bne.n	8002388 <HAL_GPIO_Init+0xb0>
          if (GPIO_Init->Pull == GPIO_NOPULL)
 800236e:	688d      	ldr	r5, [r1, #8]
 8002370:	2d00      	cmp	r5, #0
 8002372:	f000 80e6 	beq.w	8002542 <HAL_GPIO_Init+0x26a>
          else if (GPIO_Init->Pull == GPIO_PULLUP)
 8002376:	2d01      	cmp	r5, #1
            GPIOx->BSRR = ioposition;
 8002378:	bf0c      	ite	eq
 800237a:	f8c6 9010 	streq.w	r9, [r6, #16]
            GPIOx->BRR = ioposition;
 800237e:	f8c6 9014 	strne.w	r9, [r6, #20]
            config = GPIO_CR_MODE_INPUT + GPIO_CR_CNF_INPUT_PU_PD;
 8002382:	2708      	movs	r7, #8
 8002384:	e000      	b.n	8002388 <HAL_GPIO_Init+0xb0>
          config = GPIO_Init->Speed + GPIO_CR_CNF_GP_OUTPUT_PP;
 8002386:	68cf      	ldr	r7, [r1, #12]
      configregister = (iocurrent < GPIO_PIN_8) ? &GPIOx->CRL     : &GPIOx->CRH;
 8002388:	28ff      	cmp	r0, #255	@ 0xff
 800238a:	bf99      	ittee	ls
 800238c:	46b1      	movls	r9, r6
      registeroffset = (iocurrent < GPIO_PIN_8) ? (position << 2u) : ((position - 8u) << 2u);
 800238e:	4692      	movls	sl, r2
      configregister = (iocurrent < GPIO_PIN_8) ? &GPIOx->CRL     : &GPIOx->CRH;
 8002390:	f8dd 9004 	ldrhi.w	r9, [sp, #4]
      registeroffset = (iocurrent < GPIO_PIN_8) ? (position << 2u) : ((position - 8u) << 2u);
 8002394:	f1a2 0a20 	subhi.w	sl, r2, #32
      MODIFY_REG((*configregister), ((GPIO_CRL_MODE0 | GPIO_CRL_CNF0) << registeroffset), (config << registeroffset));
 8002398:	f8d9 5000 	ldr.w	r5, [r9]
 800239c:	f04f 0b0f 	mov.w	fp, #15
 80023a0:	fa0b fb0a 	lsl.w	fp, fp, sl
 80023a4:	ea25 050b 	bic.w	r5, r5, fp
 80023a8:	fa07 fa0a 	lsl.w	sl, r7, sl
 80023ac:	ea45 050a 	orr.w	r5, r5, sl
 80023b0:	f8c9 5000 	str.w	r5, [r9]
      if ((GPIO_Init->Mode & EXTI_MODE) == EXTI_MODE)
 80023b4:	684d      	ldr	r5, [r1, #4]
 80023b6:	f015 5f80 	tst.w	r5, #268435456	@ 0x10000000
 80023ba:	d079      	beq.n	80024b0 <HAL_GPIO_Init+0x1d8>
        __HAL_RCC_AFIO_CLK_ENABLE();
 80023bc:	f8de 5018 	ldr.w	r5, [lr, #24]
 80023c0:	f045 0501 	orr.w	r5, r5, #1
 80023c4:	f8ce 5018 	str.w	r5, [lr, #24]
 80023c8:	f8de 5018 	ldr.w	r5, [lr, #24]
 80023cc:	f005 0501 	and.w	r5, r5, #1
 80023d0:	9503      	str	r5, [sp, #12]
 80023d2:	9d03      	ldr	r5, [sp, #12]
        temp = AFIO->EXTICR[position >> 2u];
 80023d4:	f023 0503 	bic.w	r5, r3, #3
 80023d8:	f105 4580 	add.w	r5, r5, #1073741824	@ 0x40000000
 80023dc:	f505 3580 	add.w	r5, r5, #65536	@ 0x10000
 80023e0:	f8d5 a008 	ldr.w	sl, [r5, #8]
        CLEAR_BIT(temp, (0x0Fu) << (4u * (position & 0x03u)));
 80023e4:	f003 0b03 	and.w	fp, r3, #3
 80023e8:	ea4f 0b8b 	mov.w	fp, fp, lsl #2
 80023ec:	f04f 090f 	mov.w	r9, #15
 80023f0:	fa09 f90b 	lsl.w	r9, r9, fp
 80023f4:	ea2a 0a09 	bic.w	sl, sl, r9
        SET_BIT(temp, (GPIO_GET_INDEX(GPIOx)) << (4u * (position & 0x03u)));
 80023f8:	42a6      	cmp	r6, r4
 80023fa:	f000 80a4 	beq.w	8002546 <HAL_GPIO_Init+0x26e>
 80023fe:	4546      	cmp	r6, r8
 8002400:	f000 80a4 	beq.w	800254c <HAL_GPIO_Init+0x274>
 8002404:	f44f 5980 	mov.w	r9, #4096	@ 0x1000
 8002408:	f2c4 0901 	movt	r9, #16385	@ 0x4001
 800240c:	454e      	cmp	r6, r9
 800240e:	f000 80a0 	beq.w	8002552 <HAL_GPIO_Init+0x27a>
 8002412:	f44f 59a0 	mov.w	r9, #5120	@ 0x1400
 8002416:	f2c4 0901 	movt	r9, #16385	@ 0x4001
 800241a:	454e      	cmp	r6, r9
 800241c:	bf14      	ite	ne
 800241e:	f04f 0904 	movne.w	r9, #4
 8002422:	f04f 0903 	moveq.w	r9, #3
 8002426:	fa09 f90b 	lsl.w	r9, r9, fp
 800242a:	ea49 090a 	orr.w	r9, r9, sl
        AFIO->EXTICR[position >> 2u] = temp;
 800242e:	f8c5 9008 	str.w	r9, [r5, #8]


        /* Enable or disable the rising trigger */
        if ((GPIO_Init->Mode & RISING_EDGE) == RISING_EDGE)
 8002432:	684d      	ldr	r5, [r1, #4]
 8002434:	f415 1f80 	tst.w	r5, #1048576	@ 0x100000
        {
          SET_BIT(EXTI->RTSR, iocurrent);
 8002438:	f44f 6580 	mov.w	r5, #1024	@ 0x400
 800243c:	f2c4 0501 	movt	r5, #16385	@ 0x4001
 8002440:	f8d5 9008 	ldr.w	r9, [r5, #8]
 8002444:	bf14      	ite	ne
 8002446:	ea49 0900 	orrne.w	r9, r9, r0
        }
        else
        {
          CLEAR_BIT(EXTI->RTSR, iocurrent);
 800244a:	ea29 0900 	biceq.w	r9, r9, r0
 800244e:	f8c5 9008 	str.w	r9, [r5, #8]
        }

        /* Enable or disable the falling trigger */
        if ((GPIO_Init->Mode & FALLING_EDGE) == FALLING_EDGE)
 8002452:	684d      	ldr	r5, [r1, #4]
 8002454:	f415 1f00 	tst.w	r5, #2097152	@ 0x200000
        {
          SET_BIT(EXTI->FTSR, iocurrent);
 8002458:	f44f 6580 	mov.w	r5, #1024	@ 0x400
 800245c:	f2c4 0501 	movt	r5, #16385	@ 0x4001
 8002460:	f8d5 900c 	ldr.w	r9, [r5, #12]
 8002464:	bf14      	ite	ne
 8002466:	ea49 0900 	orrne.w	r9, r9, r0
        }
        else
        {
          CLEAR_BIT(EXTI->FTSR, iocurrent);
 800246a:	ea29 0900 	biceq.w	r9, r9, r0
 800246e:	f8c5 900c 	str.w	r9, [r5, #12]
        }

        /* Configure the event mask */
        if ((GPIO_Init->Mode & GPIO_MODE_EVT) == GPIO_MODE_EVT)
 8002472:	684d      	ldr	r5, [r1, #4]
 8002474:	f415 3f00 	tst.w	r5, #131072	@ 0x20000
        {
          SET_BIT(EXTI->EMR, iocurrent);
 8002478:	f44f 6580 	mov.w	r5, #1024	@ 0x400
 800247c:	f2c4 0501 	movt	r5, #16385	@ 0x4001
 8002480:	f8d5 9004 	ldr.w	r9, [r5, #4]
 8002484:	bf14      	ite	ne
 8002486:	ea49 0900 	orrne.w	r9, r9, r0
        }
        else
        {
          CLEAR_BIT(EXTI->EMR, iocurrent);
 800248a:	ea29 0900 	biceq.w	r9, r9, r0
 800248e:	f8c5 9004 	str.w	r9, [r5, #4]
        }

        /* Configure the interrupt mask */
        if ((GPIO_Init->Mode & GPIO_MODE_IT) == GPIO_MODE_IT)
 8002492:	684d      	ldr	r5, [r1, #4]
 8002494:	f415 3f80 	tst.w	r5, #65536	@ 0x10000
        {
          SET_BIT(EXTI->IMR, iocurrent);
 8002498:	f44f 6580 	mov.w	r5, #1024	@ 0x400
 800249c:	f2c4 0501 	movt	r5, #16385	@ 0x4001
 80024a0:	f8d5 9000 	ldr.w	r9, [r5]
 80024a4:	bf14      	ite	ne
 80024a6:	ea49 0000 	orrne.w	r0, r9, r0
        }
        else
        {
          CLEAR_BIT(EXTI->IMR, iocurrent);
 80024aa:	ea29 0000 	biceq.w	r0, r9, r0
 80024ae:	6028      	str	r0, [r5, #0]
        }
      }
    }

	position++;
 80024b0:	3301      	adds	r3, #1
  while (((GPIO_Init->Pin) >> position) != 0x00u)
 80024b2:	680d      	ldr	r5, [r1, #0]
 80024b4:	3204      	adds	r2, #4
 80024b6:	fa35 f003 	lsrs.w	r0, r5, r3
 80024ba:	d04d      	beq.n	8002558 <HAL_GPIO_Init+0x280>
    ioposition = (0x01uL << position);
 80024bc:	fa0c f903 	lsl.w	r9, ip, r3
    iocurrent = (uint32_t)(GPIO_Init->Pin) & ioposition;
 80024c0:	ea09 0005 	and.w	r0, r9, r5
    if (iocurrent == ioposition)
 80024c4:	ea39 0505 	bics.w	r5, r9, r5
 80024c8:	d1f2      	bne.n	80024b0 <HAL_GPIO_Init+0x1d8>
      switch (GPIO_Init->Mode)
 80024ca:	684d      	ldr	r5, [r1, #4]
 80024cc:	2d12      	cmp	r5, #18
 80024ce:	f63f af23 	bhi.w	8002318 <HAL_GPIO_Init+0x40>
 80024d2:	2d12      	cmp	r5, #18
 80024d4:	f63f af58 	bhi.w	8002388 <HAL_GPIO_Init+0xb0>
 80024d8:	f20f 0a04 	addw	sl, pc, #4
 80024dc:	f85a f025 	ldr.w	pc, [sl, r5, lsl #2]
 80024e0:	0800236f 	.word	0x0800236f
 80024e4:	08002387 	.word	0x08002387
 80024e8:	08002533 	.word	0x08002533
 80024ec:	0800253f 	.word	0x0800253f
 80024f0:	08002389 	.word	0x08002389
 80024f4:	08002389 	.word	0x08002389
 80024f8:	08002389 	.word	0x08002389
 80024fc:	08002389 	.word	0x08002389
 8002500:	08002389 	.word	0x08002389
 8002504:	08002389 	.word	0x08002389
 8002508:	08002389 	.word	0x08002389
 800250c:	08002389 	.word	0x08002389
 8002510:	08002389 	.word	0x08002389
 8002514:	08002389 	.word	0x08002389
 8002518:	08002389 	.word	0x08002389
 800251c:	08002389 	.word	0x08002389
 8002520:	08002389 	.word	0x08002389
 8002524:	0800252d 	.word	0x0800252d
 8002528:	08002539 	.word	0x08002539
          config = GPIO_Init->Speed + GPIO_CR_CNF_GP_OUTPUT_OD;
 800252c:	68cf      	ldr	r7, [r1, #12]
 800252e:	3704      	adds	r7, #4
          break;
 8002530:	e72a      	b.n	8002388 <HAL_GPIO_Init+0xb0>
          config = GPIO_Init->Speed + GPIO_CR_CNF_AF_OUTPUT_PP;
 8002532:	68cf      	ldr	r7, [r1, #12]
 8002534:	3708      	adds	r7, #8
          break;
 8002536:	e727      	b.n	8002388 <HAL_GPIO_Init+0xb0>
          config = GPIO_Init->Speed + GPIO_CR_CNF_AF_OUTPUT_OD;
 8002538:	68cf      	ldr	r7, [r1, #12]
 800253a:	370c      	adds	r7, #12
          break;
 800253c:	e724      	b.n	8002388 <HAL_GPIO_Init+0xb0>
      switch (GPIO_Init->Mode)
 800253e:	2700      	movs	r7, #0
 8002540:	e722      	b.n	8002388 <HAL_GPIO_Init+0xb0>
            config = GPIO_CR_MODE_INPUT + GPIO_CR_CNF_INPUT_FLOATING;
 8002542:	2704      	movs	r7, #4
 8002544:	e720      	b.n	8002388 <HAL_GPIO_Init+0xb0>
        SET_BIT(temp, (GPIO_GET_INDEX(GPIOx)) << (4u * (position & 0x03u)));
 8002546:	f04f 0900 	mov.w	r9, #0
 800254a:	e76c      	b.n	8002426 <HAL_GPIO_Init+0x14e>
 800254c:	f04f 0901 	mov.w	r9, #1
 8002550:	e769      	b.n	8002426 <HAL_GPIO_Init+0x14e>
 8002552:	f04f 0902 	mov.w	r9, #2
 8002556:	e766      	b.n	8002426 <HAL_GPIO_Init+0x14e>
  }
}
 8002558:	b005      	add	sp, #20
 800255a:	e8bd 8ff0 	ldmia.w	sp!, {r4, r5, r6, r7, r8, r9, sl, fp, pc}
 800255e:	bf00      	nop

08002560 <HAL_GPIO_ReadPin>:
  GPIO_PinState bitstatus;

  /* Check the parameters */
  assert_param(IS_GPIO_PIN(GPIO_Pin));

  if ((GPIOx->IDR & GPIO_Pin) != (uint32_t)GPIO_PIN_RESET)
 8002560:	6883      	ldr	r3, [r0, #8]
 8002562:	4219      	tst	r1, r3
  else
  {
    bitstatus = GPIO_PIN_RESET;
  }
  return bitstatus;
}
 8002564:	bf14      	ite	ne
 8002566:	2001      	movne	r0, #1
 8002568:	2000      	moveq	r0, #0
 800256a:	4770      	bx	lr

0800256c <HAL_GPIO_WritePin>:
{
  /* Check the parameters */
  assert_param(IS_GPIO_PIN(GPIO_Pin));
  assert_param(IS_GPIO_PIN_ACTION(PinState));

  if (PinState != GPIO_PIN_RESET)
 800256c:	b10a      	cbz	r2, 8002572 <HAL_GPIO_WritePin+0x6>
  {
    GPIOx->BSRR = GPIO_Pin;
 800256e:	6101      	str	r1, [r0, #16]
 8002570:	4770      	bx	lr
  }
  else
  {
    GPIOx->BSRR = (uint32_t)GPIO_Pin << 16u;
 8002572:	0409      	lsls	r1, r1, #16
 8002574:	6101      	str	r1, [r0, #16]
  }
}
 8002576:	4770      	bx	lr

08002578 <HAL_GPIO_TogglePin>:

  /* Check the parameters */
  assert_param(IS_GPIO_PIN(GPIO_Pin));

  /* get current Output Data Register value */
  odr = GPIOx->ODR;
 8002578:	68c3      	ldr	r3, [r0, #12]

  /* Set selected pins that were at low level, and reset ones that were high */
  GPIOx->BSRR = ((odr & GPIO_Pin) << GPIO_NUMBER) | (~odr & GPIO_Pin);
 800257a:	ea01 0203 	and.w	r2, r1, r3
 800257e:	ea21 0103 	bic.w	r1, r1, r3
 8002582:	ea41 4102 	orr.w	r1, r1, r2, lsl #16
 8002586:	6101      	str	r1, [r0, #16]
}
 8002588:	4770      	bx	lr

0800258a <HAL_GPIO_EXTI_Callback>:
  /* Prevent unused argument(s) compilation warning */
  UNUSED(GPIO_Pin);
  /* NOTE: This function Should not be modified, when the callback is needed,
           the HAL_GPIO_EXTI_Callback could be implemented in the user file
   */
}
 800258a:	4770      	bx	lr

0800258c <HAL_GPIO_EXTI_IRQHandler>:
{
 800258c:	b508      	push	{r3, lr}
  if (__HAL_GPIO_EXTI_GET_IT(GPIO_Pin) != 0x00u)
 800258e:	f44f 6380 	mov.w	r3, #1024	@ 0x400
 8002592:	f2c4 0301 	movt	r3, #16385	@ 0x4001
 8002596:	695b      	ldr	r3, [r3, #20]
 8002598:	4203      	tst	r3, r0
 800259a:	d100      	bne.n	800259e <HAL_GPIO_EXTI_IRQHandler+0x12>
}
 800259c:	bd08      	pop	{r3, pc}
    __HAL_GPIO_EXTI_CLEAR_IT(GPIO_Pin);
 800259e:	f44f 6380 	mov.w	r3, #1024	@ 0x400
 80025a2:	f2c4 0301 	movt	r3, #16385	@ 0x4001
 80025a6:	6158      	str	r0, [r3, #20]
    HAL_GPIO_EXTI_Callback(GPIO_Pin);
 80025a8:	f7ff ffef 	bl	800258a <HAL_GPIO_EXTI_Callback>
}
 80025ac:	e7f6      	b.n	800259c <HAL_GPIO_EXTI_IRQHandler+0x10>

080025ae <HAL_I2C_Init>:
{
  uint32_t freqrange;
  uint32_t pclk1;

  /* Check the I2C handle allocation */
  if (hi2c == NULL)
 80025ae:	2800      	cmp	r0, #0
 80025b0:	f000 80c7 	beq.w	8002742 <HAL_I2C_Init+0x194>
{
 80025b4:	b538      	push	{r3, r4, r5, lr}
 80025b6:	4604      	mov	r4, r0
  assert_param(IS_I2C_DUAL_ADDRESS(hi2c->Init.DualAddressMode));
  assert_param(IS_I2C_OWN_ADDRESS2(hi2c->Init.OwnAddress2));
  assert_param(IS_I2C_GENERAL_CALL(hi2c->Init.GeneralCallMode));
  assert_param(IS_I2C_NO_STRETCH(hi2c->Init.NoStretchMode));

  if (hi2c->State == HAL_I2C_STATE_RESET)
 80025b8:	f890 303d 	ldrb.w	r3, [r0, #61]	@ 0x3d
 80025bc:	2b00      	cmp	r3, #0
 80025be:	f000 8084 	beq.w	80026ca <HAL_I2C_Init+0x11c>
    /* Init the low level hardware : GPIO, CLOCK, NVIC */
    HAL_I2C_MspInit(hi2c);
#endif /* USE_HAL_I2C_REGISTER_CALLBACKS */
  }

  hi2c->State = HAL_I2C_STATE_BUSY;
 80025c2:	2324      	movs	r3, #36	@ 0x24
 80025c4:	f884 303d 	strb.w	r3, [r4, #61]	@ 0x3d

  /* Disable the selected I2C peripheral */
  __HAL_I2C_DISABLE(hi2c);
 80025c8:	6822      	ldr	r2, [r4, #0]
 80025ca:	6813      	ldr	r3, [r2, #0]
 80025cc:	f023 0301 	bic.w	r3, r3, #1
 80025d0:	6013      	str	r3, [r2, #0]

  /*Reset I2C*/
  hi2c->Instance->CR1 |= I2C_CR1_SWRST;
 80025d2:	6822      	ldr	r2, [r4, #0]
 80025d4:	6813      	ldr	r3, [r2, #0]
 80025d6:	f443 4300 	orr.w	r3, r3, #32768	@ 0x8000
 80025da:	6013      	str	r3, [r2, #0]
  hi2c->Instance->CR1 &= ~I2C_CR1_SWRST;
 80025dc:	6822      	ldr	r2, [r4, #0]
 80025de:	6813      	ldr	r3, [r2, #0]
 80025e0:	f423 4300 	bic.w	r3, r3, #32768	@ 0x8000
 80025e4:	6013      	str	r3, [r2, #0]

  /* Get PCLK1 frequency */
  pclk1 = HAL_RCC_GetPCLK1Freq();
 80025e6:	f000 fc29 	bl	8002e3c <HAL_RCC_GetPCLK1Freq>

  /* Check the minimum allowed PCLK1 frequency */
  if (I2C_MIN_PCLK_FREQ(pclk1, hi2c->Init.ClockSpeed) == 1U)
 80025ea:	f248 63a0 	movw	r3, #34464	@ 0x86a0
 80025ee:	f2c0 0301 	movt	r3, #1
 80025f2:	6862      	ldr	r2, [r4, #4]
 80025f4:	429a      	cmp	r2, r3
 80025f6:	d86d      	bhi.n	80026d4 <HAL_I2C_Init+0x126>
 80025f8:	f248 437f 	movw	r3, #33919	@ 0x847f
 80025fc:	f2c0 031e 	movt	r3, #30
 8002600:	4298      	cmp	r0, r3
 8002602:	f240 80a0 	bls.w	8002746 <HAL_I2C_Init+0x198>
  {
    return HAL_ERROR;
  }

  /* Calculate frequency range */
  freqrange = I2C_FREQRANGE(pclk1);
 8002606:	f64d 6183 	movw	r1, #56963	@ 0xde83
 800260a:	f2c4 311b 	movt	r1, #17179	@ 0x431b
 800260e:	fba1 3100 	umull	r3, r1, r1, r0
 8002612:	0c8b      	lsrs	r3, r1, #18

  /*---------------------------- I2Cx CR2 Configuration ----------------------*/
  /* Configure I2Cx: Frequency range */
  MODIFY_REG(hi2c->Instance->CR2, I2C_CR2_FREQ, freqrange);
 8002614:	6825      	ldr	r5, [r4, #0]
 8002616:	686a      	ldr	r2, [r5, #4]
 8002618:	f022 023f 	bic.w	r2, r2, #63	@ 0x3f
 800261c:	ea42 4291 	orr.w	r2, r2, r1, lsr #18
 8002620:	606a      	str	r2, [r5, #4]

  /*---------------------------- I2Cx TRISE Configuration --------------------*/
  /* Configure I2Cx: Rise Time */
  MODIFY_REG(hi2c->Instance->TRISE, I2C_TRISE_TRISE, I2C_RISE_TIME(freqrange, hi2c->Init.ClockSpeed));
 8002622:	6821      	ldr	r1, [r4, #0]
 8002624:	6a0a      	ldr	r2, [r1, #32]
 8002626:	f022 023f 	bic.w	r2, r2, #63	@ 0x3f
 800262a:	f248 65a0 	movw	r5, #34464	@ 0x86a0
 800262e:	f2c0 0501 	movt	r5, #1
 8002632:	f8d4 c004 	ldr.w	ip, [r4, #4]
 8002636:	45ac      	cmp	ip, r5
 8002638:	d854      	bhi.n	80026e4 <HAL_I2C_Init+0x136>
 800263a:	3301      	adds	r3, #1
 800263c:	4313      	orrs	r3, r2
 800263e:	620b      	str	r3, [r1, #32]

  /*---------------------------- I2Cx CCR Configuration ----------------------*/
  /* Configure I2Cx: Speed */
  MODIFY_REG(hi2c->Instance->CCR, (I2C_CCR_FS | I2C_CCR_DUTY | I2C_CCR_CCR), I2C_SPEED(pclk1, hi2c->Init.ClockSpeed, hi2c->Init.DutyCycle));
 8002640:	6821      	ldr	r1, [r4, #0]
 8002642:	69ca      	ldr	r2, [r1, #28]
 8002644:	f422 424f 	bic.w	r2, r2, #52992	@ 0xcf00
 8002648:	f022 02ff 	bic.w	r2, r2, #255	@ 0xff
 800264c:	6865      	ldr	r5, [r4, #4]
 800264e:	f248 63a0 	movw	r3, #34464	@ 0x86a0
 8002652:	f2c0 0301 	movt	r3, #1
 8002656:	429d      	cmp	r5, r3
 8002658:	d851      	bhi.n	80026fe <HAL_I2C_Init+0x150>
 800265a:	1e43      	subs	r3, r0, #1
 800265c:	006d      	lsls	r5, r5, #1
 800265e:	fbb3 f3f5 	udiv	r3, r3, r5
 8002662:	3301      	adds	r3, #1
 8002664:	f640 70fc 	movw	r0, #4092	@ 0xffc
 8002668:	4203      	tst	r3, r0
 800266a:	d064      	beq.n	8002736 <HAL_I2C_Init+0x188>
 800266c:	f3c3 030b 	ubfx	r3, r3, #0, #12
 8002670:	431a      	orrs	r2, r3
 8002672:	61ca      	str	r2, [r1, #28]

  /*---------------------------- I2Cx CR1 Configuration ----------------------*/
  /* Configure I2Cx: Generalcall and NoStretch mode */
  MODIFY_REG(hi2c->Instance->CR1, (I2C_CR1_ENGC | I2C_CR1_NOSTRETCH), (hi2c->Init.GeneralCallMode | hi2c->Init.NoStretchMode));
 8002674:	6821      	ldr	r1, [r4, #0]
 8002676:	680a      	ldr	r2, [r1, #0]
 8002678:	69e3      	ldr	r3, [r4, #28]
 800267a:	6a20      	ldr	r0, [r4, #32]
 800267c:	4303      	orrs	r3, r0
 800267e:	f022 02c0 	bic.w	r2, r2, #192	@ 0xc0
 8002682:	4313      	orrs	r3, r2
 8002684:	600b      	str	r3, [r1, #0]

  /*---------------------------- I2Cx OAR1 Configuration ---------------------*/
  /* Configure I2Cx: Own Address1 and addressing mode */
  MODIFY_REG(hi2c->Instance->OAR1, (I2C_OAR1_ADDMODE | I2C_OAR1_ADD8_9 | I2C_OAR1_ADD1_7 | I2C_OAR1_ADD0), (hi2c->Init.AddressingMode | hi2c->Init.OwnAddress1));
 8002686:	6821      	ldr	r1, [r4, #0]
 8002688:	688a      	ldr	r2, [r1, #8]
 800268a:	6923      	ldr	r3, [r4, #16]
 800268c:	68e0      	ldr	r0, [r4, #12]
 800268e:	4303      	orrs	r3, r0
 8002690:	f422 4203 	bic.w	r2, r2, #33536	@ 0x8300
 8002694:	f022 02ff 	bic.w	r2, r2, #255	@ 0xff
 8002698:	4313      	orrs	r3, r2
 800269a:	608b      	str	r3, [r1, #8]

  /*---------------------------- I2Cx OAR2 Configuration ---------------------*/
  /* Configure I2Cx: Dual mode and Own Address2 */
  MODIFY_REG(hi2c->Instance->OAR2, (I2C_OAR2_ENDUAL | I2C_OAR2_ADD2), (hi2c->Init.DualAddressMode | hi2c->Init.OwnAddress2));
 800269c:	6821      	ldr	r1, [r4, #0]
 800269e:	68ca      	ldr	r2, [r1, #12]
 80026a0:	6963      	ldr	r3, [r4, #20]
 80026a2:	69a0      	ldr	r0, [r4, #24]
 80026a4:	4303      	orrs	r3, r0
 80026a6:	f022 02ff 	bic.w	r2, r2, #255	@ 0xff
 80026aa:	4313      	orrs	r3, r2
 80026ac:	60cb      	str	r3, [r1, #12]

  /* Enable the selected I2C peripheral */
  __HAL_I2C_ENABLE(hi2c);
 80026ae:	6822      	ldr	r2, [r4, #0]
 80026b0:	6813      	ldr	r3, [r2, #0]
 80026b2:	f043 0301 	orr.w	r3, r3, #1
 80026b6:	6013      	str	r3, [r2, #0]

  hi2c->ErrorCode = HAL_I2C_ERROR_NONE;
 80026b8:	2000      	movs	r0, #0
 80026ba:	6420      	str	r0, [r4, #64]	@ 0x40
  hi2c->State = HAL_I2C_STATE_READY;
 80026bc:	2320      	movs	r3, #32
 80026be:	f884 303d 	strb.w	r3, [r4, #61]	@ 0x3d
  hi2c->PreviousState = I2C_STATE_NONE;
 80026c2:	6320      	str	r0, [r4, #48]	@ 0x30
  hi2c->Mode = HAL_I2C_MODE_NONE;
 80026c4:	f884 003e 	strb.w	r0, [r4, #62]	@ 0x3e

  return HAL_OK;
}
 80026c8:	bd38      	pop	{r3, r4, r5, pc}
    hi2c->Lock = HAL_UNLOCKED;
 80026ca:	f880 303c 	strb.w	r3, [r0, #60]	@ 0x3c
    HAL_I2C_MspInit(hi2c);
 80026ce:	f7ff fa82 	bl	8001bd6 <HAL_I2C_MspInit>
 80026d2:	e776      	b.n	80025c2 <HAL_I2C_Init+0x14>
  if (I2C_MIN_PCLK_FREQ(pclk1, hi2c->Init.ClockSpeed) == 1U)
 80026d4:	f640 03ff 	movw	r3, #2303	@ 0x8ff
 80026d8:	f2c0 033d 	movt	r3, #61	@ 0x3d
 80026dc:	4298      	cmp	r0, r3
 80026de:	d892      	bhi.n	8002606 <HAL_I2C_Init+0x58>
    return HAL_ERROR;
 80026e0:	2001      	movs	r0, #1
 80026e2:	e7f1      	b.n	80026c8 <HAL_I2C_Init+0x11a>
  MODIFY_REG(hi2c->Instance->TRISE, I2C_TRISE_TRISE, I2C_RISE_TIME(freqrange, hi2c->Init.ClockSpeed));
 80026e4:	f44f 7596 	mov.w	r5, #300	@ 0x12c
 80026e8:	fb05 f303 	mul.w	r3, r5, r3
 80026ec:	f644 55d3 	movw	r5, #19923	@ 0x4dd3
 80026f0:	f2c1 0562 	movt	r5, #4194	@ 0x1062
 80026f4:	fba5 5303 	umull	r5, r3, r5, r3
 80026f8:	099b      	lsrs	r3, r3, #6
 80026fa:	3301      	adds	r3, #1
 80026fc:	e79e      	b.n	800263c <HAL_I2C_Init+0x8e>
  MODIFY_REG(hi2c->Instance->CCR, (I2C_CCR_FS | I2C_CCR_DUTY | I2C_CCR_CCR), I2C_SPEED(pclk1, hi2c->Init.ClockSpeed, hi2c->Init.DutyCycle));
 80026fe:	68a3      	ldr	r3, [r4, #8]
 8002700:	b95b      	cbnz	r3, 800271a <HAL_I2C_Init+0x16c>
 8002702:	1e43      	subs	r3, r0, #1
 8002704:	eb05 0545 	add.w	r5, r5, r5, lsl #1
 8002708:	fbb3 f3f5 	udiv	r3, r3, r5
 800270c:	3301      	adds	r3, #1
 800270e:	f3c3 030b 	ubfx	r3, r3, #0, #12
 8002712:	b193      	cbz	r3, 800273a <HAL_I2C_Init+0x18c>
 8002714:	f443 4300 	orr.w	r3, r3, #32768	@ 0x8000
 8002718:	e7aa      	b.n	8002670 <HAL_I2C_Init+0xc2>
 800271a:	1e43      	subs	r3, r0, #1
 800271c:	eb05 0585 	add.w	r5, r5, r5, lsl #2
 8002720:	eb05 0585 	add.w	r5, r5, r5, lsl #2
 8002724:	fbb3 f3f5 	udiv	r3, r3, r5
 8002728:	3301      	adds	r3, #1
 800272a:	f3c3 030b 	ubfx	r3, r3, #0, #12
 800272e:	b133      	cbz	r3, 800273e <HAL_I2C_Init+0x190>
 8002730:	f443 4340 	orr.w	r3, r3, #49152	@ 0xc000
 8002734:	e79c      	b.n	8002670 <HAL_I2C_Init+0xc2>
 8002736:	2304      	movs	r3, #4
 8002738:	e79a      	b.n	8002670 <HAL_I2C_Init+0xc2>
 800273a:	2301      	movs	r3, #1
 800273c:	e798      	b.n	8002670 <HAL_I2C_Init+0xc2>
 800273e:	2301      	movs	r3, #1
 8002740:	e796      	b.n	8002670 <HAL_I2C_Init+0xc2>
    return HAL_ERROR;
 8002742:	2001      	movs	r0, #1
}
 8002744:	4770      	bx	lr
    return HAL_ERROR;
 8002746:	2001      	movs	r0, #1
 8002748:	e7be      	b.n	80026c8 <HAL_I2C_Init+0x11a>

0800274a <HAL_RCC_OscConfig>:
{
  uint32_t tickstart;
  uint32_t pll_config;

  /* Check Null pointer */
  if (RCC_OscInitStruct == NULL)
 800274a:	2800      	cmp	r0, #0
 800274c:	f000 827a 	beq.w	8002c44 <HAL_RCC_OscConfig+0x4fa>
{
 8002750:	e92d 41f0 	stmdb	sp!, {r4, r5, r6, r7, r8, lr}
 8002754:	b082      	sub	sp, #8
 8002756:	4604      	mov	r4, r0

  /* Check the parameters */
  assert_param(IS_RCC_OSCILLATORTYPE(RCC_OscInitStruct->OscillatorType));

  /*------------------------------- HSE Configuration ------------------------*/
  if (((RCC_OscInitStruct->OscillatorType) & RCC_OSCILLATORTYPE_HSE) == RCC_OSCILLATORTYPE_HSE)
 8002758:	6803      	ldr	r3, [r0, #0]
 800275a:	f013 0f01 	tst.w	r3, #1
 800275e:	d038      	beq.n	80027d2 <HAL_RCC_OscConfig+0x88>
  {
    /* Check the parameters */
    assert_param(IS_RCC_HSE(RCC_OscInitStruct->HSEState));

    /* When the HSE is used as system clock or clock source for PLL in these cases it is not allowed to be disabled */
    if ((__HAL_RCC_GET_SYSCLK_SOURCE() == RCC_SYSCLKSOURCE_STATUS_HSE)
 8002760:	f44f 5380 	mov.w	r3, #4096	@ 0x1000
 8002764:	f2c4 0302 	movt	r3, #16386	@ 0x4002
 8002768:	685b      	ldr	r3, [r3, #4]
 800276a:	f003 030c 	and.w	r3, r3, #12
 800276e:	2b04      	cmp	r3, #4
 8002770:	d023      	beq.n	80027ba <HAL_RCC_OscConfig+0x70>
        || ((__HAL_RCC_GET_SYSCLK_SOURCE() == RCC_SYSCLKSOURCE_STATUS_PLLCLK) && (__HAL_RCC_GET_PLL_OSCSOURCE() == RCC_PLLSOURCE_HSE)))
 8002772:	f44f 5380 	mov.w	r3, #4096	@ 0x1000
 8002776:	f2c4 0302 	movt	r3, #16386	@ 0x4002
 800277a:	685b      	ldr	r3, [r3, #4]
 800277c:	f003 030c 	and.w	r3, r3, #12
 8002780:	2b08      	cmp	r3, #8
 8002782:	d012      	beq.n	80027aa <HAL_RCC_OscConfig+0x60>
      }
    }
    else
    {
      /* Set the new HSE configuration ---------------------------------------*/
      __HAL_RCC_HSE_CONFIG(RCC_OscInitStruct->HSEState);
 8002784:	6863      	ldr	r3, [r4, #4]
 8002786:	f5b3 3f80 	cmp.w	r3, #65536	@ 0x10000
 800278a:	d054      	beq.n	8002836 <HAL_RCC_OscConfig+0xec>
 800278c:	2b00      	cmp	r3, #0
 800278e:	d16e      	bne.n	800286e <HAL_RCC_OscConfig+0x124>
 8002790:	f44f 5380 	mov.w	r3, #4096	@ 0x1000
 8002794:	f2c4 0302 	movt	r3, #16386	@ 0x4002
 8002798:	681a      	ldr	r2, [r3, #0]
 800279a:	f422 3280 	bic.w	r2, r2, #65536	@ 0x10000
 800279e:	601a      	str	r2, [r3, #0]
 80027a0:	681a      	ldr	r2, [r3, #0]
 80027a2:	f422 2280 	bic.w	r2, r2, #262144	@ 0x40000
 80027a6:	601a      	str	r2, [r3, #0]
 80027a8:	e04d      	b.n	8002846 <HAL_RCC_OscConfig+0xfc>
        || ((__HAL_RCC_GET_SYSCLK_SOURCE() == RCC_SYSCLKSOURCE_STATUS_PLLCLK) && (__HAL_RCC_GET_PLL_OSCSOURCE() == RCC_PLLSOURCE_HSE)))
 80027aa:	f44f 5380 	mov.w	r3, #4096	@ 0x1000
 80027ae:	f2c4 0302 	movt	r3, #16386	@ 0x4002
 80027b2:	685b      	ldr	r3, [r3, #4]
 80027b4:	f413 3f80 	tst.w	r3, #65536	@ 0x10000
 80027b8:	d0e4      	beq.n	8002784 <HAL_RCC_OscConfig+0x3a>
      if ((__HAL_RCC_GET_FLAG(RCC_FLAG_HSERDY) != RESET) && (RCC_OscInitStruct->HSEState == RCC_HSE_OFF))
 80027ba:	f44f 5380 	mov.w	r3, #4096	@ 0x1000
 80027be:	f2c4 0302 	movt	r3, #16386	@ 0x4002
 80027c2:	681b      	ldr	r3, [r3, #0]
 80027c4:	f413 3f00 	tst.w	r3, #131072	@ 0x20000
 80027c8:	d003      	beq.n	80027d2 <HAL_RCC_OscConfig+0x88>
 80027ca:	6863      	ldr	r3, [r4, #4]
 80027cc:	2b00      	cmp	r3, #0
 80027ce:	f000 823b 	beq.w	8002c48 <HAL_RCC_OscConfig+0x4fe>
        }
      }
    }
  }
  /*----------------------------- HSI Configuration --------------------------*/
  if (((RCC_OscInitStruct->OscillatorType) & RCC_OSCILLATORTYPE_HSI) == RCC_OSCILLATORTYPE_HSI)
 80027d2:	6823      	ldr	r3, [r4, #0]
 80027d4:	f013 0f02 	tst.w	r3, #2
 80027d8:	f000 8097 	beq.w	800290a <HAL_RCC_OscConfig+0x1c0>
    /* Check the parameters */
    assert_param(IS_RCC_HSI(RCC_OscInitStruct->HSIState));
    assert_param(IS_RCC_CALIBRATION_VALUE(RCC_OscInitStruct->HSICalibrationValue));

    /* Check if HSI is used as system clock or as PLL source when PLL is selected as system clock */
    if ((__HAL_RCC_GET_SYSCLK_SOURCE() == RCC_SYSCLKSOURCE_STATUS_HSI)
 80027dc:	f44f 5380 	mov.w	r3, #4096	@ 0x1000
 80027e0:	f2c4 0302 	movt	r3, #16386	@ 0x4002
 80027e4:	685b      	ldr	r3, [r3, #4]
 80027e6:	f013 0f0c 	tst.w	r3, #12
 80027ea:	d077      	beq.n	80028dc <HAL_RCC_OscConfig+0x192>
        || ((__HAL_RCC_GET_SYSCLK_SOURCE() == RCC_SYSCLKSOURCE_STATUS_PLLCLK) && (__HAL_RCC_GET_PLL_OSCSOURCE() == RCC_PLLSOURCE_HSI_DIV2)))
 80027ec:	f44f 5380 	mov.w	r3, #4096	@ 0x1000
 80027f0:	f2c4 0302 	movt	r3, #16386	@ 0x4002
 80027f4:	685b      	ldr	r3, [r3, #4]
 80027f6:	f003 030c 	and.w	r3, r3, #12
 80027fa:	2b08      	cmp	r3, #8
 80027fc:	d066      	beq.n	80028cc <HAL_RCC_OscConfig+0x182>
      }
    }
    else
    {
      /* Check the HSI State */
      if (RCC_OscInitStruct->HSIState != RCC_HSI_OFF)
 80027fe:	6923      	ldr	r3, [r4, #16]
 8002800:	2b00      	cmp	r3, #0
 8002802:	f000 80ae 	beq.w	8002962 <HAL_RCC_OscConfig+0x218>
      {
        /* Enable the Internal High Speed oscillator (HSI). */
        __HAL_RCC_HSI_ENABLE();
 8002806:	2300      	movs	r3, #0
 8002808:	f2c4 2342 	movt	r3, #16962	@ 0x4242
 800280c:	2201      	movs	r2, #1
 800280e:	601a      	str	r2, [r3, #0]

        /* Get Start Tick */
        tickstart = HAL_GetTick();
 8002810:	f7ff fc47 	bl	80020a2 <HAL_GetTick>
 8002814:	4605      	mov	r5, r0

        /* Wait till HSI is ready */
        while (__HAL_RCC_GET_FLAG(RCC_FLAG_HSIRDY) == RESET)
 8002816:	f44f 5680 	mov.w	r6, #4096	@ 0x1000
 800281a:	f2c4 0602 	movt	r6, #16386	@ 0x4002
 800281e:	6833      	ldr	r3, [r6, #0]
 8002820:	f013 0f02 	tst.w	r3, #2
 8002824:	f040 8091 	bne.w	800294a <HAL_RCC_OscConfig+0x200>
        {
          if ((HAL_GetTick() - tickstart) > HSI_TIMEOUT_VALUE)
 8002828:	f7ff fc3b 	bl	80020a2 <HAL_GetTick>
 800282c:	1b40      	subs	r0, r0, r5
 800282e:	2802      	cmp	r0, #2
 8002830:	d9f5      	bls.n	800281e <HAL_RCC_OscConfig+0xd4>
          {
            return HAL_TIMEOUT;
 8002832:	2003      	movs	r0, #3
 8002834:	e20d      	b.n	8002c52 <HAL_RCC_OscConfig+0x508>
      __HAL_RCC_HSE_CONFIG(RCC_OscInitStruct->HSEState);
 8002836:	f44f 5380 	mov.w	r3, #4096	@ 0x1000
 800283a:	f2c4 0302 	movt	r3, #16386	@ 0x4002
 800283e:	681a      	ldr	r2, [r3, #0]
 8002840:	f442 3280 	orr.w	r2, r2, #65536	@ 0x10000
 8002844:	601a      	str	r2, [r3, #0]
      if (RCC_OscInitStruct->HSEState != RCC_HSE_OFF)
 8002846:	6863      	ldr	r3, [r4, #4]
 8002848:	b373      	cbz	r3, 80028a8 <HAL_RCC_OscConfig+0x15e>
        tickstart = HAL_GetTick();
 800284a:	f7ff fc2a 	bl	80020a2 <HAL_GetTick>
 800284e:	4605      	mov	r5, r0
        while (__HAL_RCC_GET_FLAG(RCC_FLAG_HSERDY) == RESET)
 8002850:	f44f 5680 	mov.w	r6, #4096	@ 0x1000
 8002854:	f2c4 0602 	movt	r6, #16386	@ 0x4002
 8002858:	6833      	ldr	r3, [r6, #0]
 800285a:	f413 3f00 	tst.w	r3, #131072	@ 0x20000
 800285e:	d1b8      	bne.n	80027d2 <HAL_RCC_OscConfig+0x88>
          if ((HAL_GetTick() - tickstart) > HSE_TIMEOUT_VALUE)
 8002860:	f7ff fc1f 	bl	80020a2 <HAL_GetTick>
 8002864:	1b40      	subs	r0, r0, r5
 8002866:	2864      	cmp	r0, #100	@ 0x64
 8002868:	d9f6      	bls.n	8002858 <HAL_RCC_OscConfig+0x10e>
            return HAL_TIMEOUT;
 800286a:	2003      	movs	r0, #3
 800286c:	e1f1      	b.n	8002c52 <HAL_RCC_OscConfig+0x508>
      __HAL_RCC_HSE_CONFIG(RCC_OscInitStruct->HSEState);
 800286e:	f5b3 2fa0 	cmp.w	r3, #327680	@ 0x50000
 8002872:	d00c      	beq.n	800288e <HAL_RCC_OscConfig+0x144>
 8002874:	f44f 5380 	mov.w	r3, #4096	@ 0x1000
 8002878:	f2c4 0302 	movt	r3, #16386	@ 0x4002
 800287c:	681a      	ldr	r2, [r3, #0]
 800287e:	f422 3280 	bic.w	r2, r2, #65536	@ 0x10000
 8002882:	601a      	str	r2, [r3, #0]
 8002884:	681a      	ldr	r2, [r3, #0]
 8002886:	f422 2280 	bic.w	r2, r2, #262144	@ 0x40000
 800288a:	601a      	str	r2, [r3, #0]
 800288c:	e7db      	b.n	8002846 <HAL_RCC_OscConfig+0xfc>
 800288e:	f44f 5380 	mov.w	r3, #4096	@ 0x1000
 8002892:	f2c4 0302 	movt	r3, #16386	@ 0x4002
 8002896:	681a      	ldr	r2, [r3, #0]
 8002898:	f442 2280 	orr.w	r2, r2, #262144	@ 0x40000
 800289c:	601a      	str	r2, [r3, #0]
 800289e:	681a      	ldr	r2, [r3, #0]
 80028a0:	f442 3280 	orr.w	r2, r2, #65536	@ 0x10000
 80028a4:	601a      	str	r2, [r3, #0]
 80028a6:	e7ce      	b.n	8002846 <HAL_RCC_OscConfig+0xfc>
        tickstart = HAL_GetTick();
 80028a8:	f7ff fbfb 	bl	80020a2 <HAL_GetTick>
 80028ac:	4605      	mov	r5, r0
        while (__HAL_RCC_GET_FLAG(RCC_FLAG_HSERDY) != RESET)
 80028ae:	f44f 5680 	mov.w	r6, #4096	@ 0x1000
 80028b2:	f2c4 0602 	movt	r6, #16386	@ 0x4002
 80028b6:	6833      	ldr	r3, [r6, #0]
 80028b8:	f413 3f00 	tst.w	r3, #131072	@ 0x20000
 80028bc:	d089      	beq.n	80027d2 <HAL_RCC_OscConfig+0x88>
          if ((HAL_GetTick() - tickstart) > HSE_TIMEOUT_VALUE)
 80028be:	f7ff fbf0 	bl	80020a2 <HAL_GetTick>
 80028c2:	1b40      	subs	r0, r0, r5
 80028c4:	2864      	cmp	r0, #100	@ 0x64
 80028c6:	d9f6      	bls.n	80028b6 <HAL_RCC_OscConfig+0x16c>
            return HAL_TIMEOUT;
 80028c8:	2003      	movs	r0, #3
 80028ca:	e1c2      	b.n	8002c52 <HAL_RCC_OscConfig+0x508>
        || ((__HAL_RCC_GET_SYSCLK_SOURCE() == RCC_SYSCLKSOURCE_STATUS_PLLCLK) && (__HAL_RCC_GET_PLL_OSCSOURCE() == RCC_PLLSOURCE_HSI_DIV2)))
 80028cc:	f44f 5380 	mov.w	r3, #4096	@ 0x1000
 80028d0:	f2c4 0302 	movt	r3, #16386	@ 0x4002
 80028d4:	685b      	ldr	r3, [r3, #4]
 80028d6:	f413 3f80 	tst.w	r3, #65536	@ 0x10000
 80028da:	d190      	bne.n	80027fe <HAL_RCC_OscConfig+0xb4>
      if ((__HAL_RCC_GET_FLAG(RCC_FLAG_HSIRDY) != RESET) && (RCC_OscInitStruct->HSIState != RCC_HSI_ON))
 80028dc:	f44f 5380 	mov.w	r3, #4096	@ 0x1000
 80028e0:	f2c4 0302 	movt	r3, #16386	@ 0x4002
 80028e4:	681b      	ldr	r3, [r3, #0]
 80028e6:	f013 0f02 	tst.w	r3, #2
 80028ea:	d003      	beq.n	80028f4 <HAL_RCC_OscConfig+0x1aa>
 80028ec:	6923      	ldr	r3, [r4, #16]
 80028ee:	2b01      	cmp	r3, #1
 80028f0:	f040 81ac 	bne.w	8002c4c <HAL_RCC_OscConfig+0x502>
        __HAL_RCC_HSI_CALIBRATIONVALUE_ADJUST(RCC_OscInitStruct->HSICalibrationValue);
 80028f4:	f44f 5280 	mov.w	r2, #4096	@ 0x1000
 80028f8:	f2c4 0202 	movt	r2, #16386	@ 0x4002
 80028fc:	6813      	ldr	r3, [r2, #0]
 80028fe:	6961      	ldr	r1, [r4, #20]
 8002900:	f023 03f8 	bic.w	r3, r3, #248	@ 0xf8
 8002904:	ea43 03c1 	orr.w	r3, r3, r1, lsl #3
 8002908:	6013      	str	r3, [r2, #0]
        }
      }
    }
  }
  /*------------------------------ LSI Configuration -------------------------*/
  if (((RCC_OscInitStruct->OscillatorType) & RCC_OSCILLATORTYPE_LSI) == RCC_OSCILLATORTYPE_LSI)
 800290a:	6823      	ldr	r3, [r4, #0]
 800290c:	f013 0f08 	tst.w	r3, #8
 8002910:	d051      	beq.n	80029b6 <HAL_RCC_OscConfig+0x26c>
  {
    /* Check the parameters */
    assert_param(IS_RCC_LSI(RCC_OscInitStruct->LSIState));

    /* Check the LSI State */
    if (RCC_OscInitStruct->LSIState != RCC_LSI_OFF)
 8002912:	69a3      	ldr	r3, [r4, #24]
 8002914:	2b00      	cmp	r3, #0
 8002916:	f000 8083 	beq.w	8002a20 <HAL_RCC_OscConfig+0x2d6>
    {
      /* Enable the Internal Low Speed oscillator (LSI). */
      __HAL_RCC_LSI_ENABLE();
 800291a:	2300      	movs	r3, #0
 800291c:	f2c4 2342 	movt	r3, #16962	@ 0x4242
 8002920:	2201      	movs	r2, #1
 8002922:	f8c3 2480 	str.w	r2, [r3, #1152]	@ 0x480

      /* Get Start Tick */
      tickstart = HAL_GetTick();
 8002926:	f7ff fbbc 	bl	80020a2 <HAL_GetTick>
 800292a:	4605      	mov	r5, r0

      /* Wait till LSI is ready */
      while (__HAL_RCC_GET_FLAG(RCC_FLAG_LSIRDY) == RESET)
 800292c:	f44f 5680 	mov.w	r6, #4096	@ 0x1000
 8002930:	f2c4 0602 	movt	r6, #16386	@ 0x4002
 8002934:	6a73      	ldr	r3, [r6, #36]	@ 0x24
 8002936:	f013 0f02 	tst.w	r3, #2
 800293a:	d129      	bne.n	8002990 <HAL_RCC_OscConfig+0x246>
      {
        if ((HAL_GetTick() - tickstart) > LSI_TIMEOUT_VALUE)
 800293c:	f7ff fbb1 	bl	80020a2 <HAL_GetTick>
 8002940:	1b40      	subs	r0, r0, r5
 8002942:	2802      	cmp	r0, #2
 8002944:	d9f6      	bls.n	8002934 <HAL_RCC_OscConfig+0x1ea>
        {
          return HAL_TIMEOUT;
 8002946:	2003      	movs	r0, #3
 8002948:	e183      	b.n	8002c52 <HAL_RCC_OscConfig+0x508>
        __HAL_RCC_HSI_CALIBRATIONVALUE_ADJUST(RCC_OscInitStruct->HSICalibrationValue);
 800294a:	f44f 5280 	mov.w	r2, #4096	@ 0x1000
 800294e:	f2c4 0202 	movt	r2, #16386	@ 0x4002
 8002952:	6813      	ldr	r3, [r2, #0]
 8002954:	6961      	ldr	r1, [r4, #20]
 8002956:	f023 03f8 	bic.w	r3, r3, #248	@ 0xf8
 800295a:	ea43 03c1 	orr.w	r3, r3, r1, lsl #3
 800295e:	6013      	str	r3, [r2, #0]
 8002960:	e7d3      	b.n	800290a <HAL_RCC_OscConfig+0x1c0>
        __HAL_RCC_HSI_DISABLE();
 8002962:	2300      	movs	r3, #0
 8002964:	f2c4 2342 	movt	r3, #16962	@ 0x4242
 8002968:	2200      	movs	r2, #0
 800296a:	601a      	str	r2, [r3, #0]
        tickstart = HAL_GetTick();
 800296c:	f7ff fb99 	bl	80020a2 <HAL_GetTick>
 8002970:	4605      	mov	r5, r0
        while (__HAL_RCC_GET_FLAG(RCC_FLAG_HSIRDY) != RESET)
 8002972:	f44f 5680 	mov.w	r6, #4096	@ 0x1000
 8002976:	f2c4 0602 	movt	r6, #16386	@ 0x4002
 800297a:	6833      	ldr	r3, [r6, #0]
 800297c:	f013 0f02 	tst.w	r3, #2
 8002980:	d0c3      	beq.n	800290a <HAL_RCC_OscConfig+0x1c0>
          if ((HAL_GetTick() - tickstart) > HSI_TIMEOUT_VALUE)
 8002982:	f7ff fb8e 	bl	80020a2 <HAL_GetTick>
 8002986:	1b40      	subs	r0, r0, r5
 8002988:	2802      	cmp	r0, #2
 800298a:	d9f6      	bls.n	800297a <HAL_RCC_OscConfig+0x230>
            return HAL_TIMEOUT;
 800298c:	2003      	movs	r0, #3
 800298e:	e160      	b.n	8002c52 <HAL_RCC_OscConfig+0x508>
  * @param  mdelay: specifies the delay time length, in milliseconds.
  * @retval None
  */
static void RCC_Delay(uint32_t mdelay)
{
  __IO uint32_t Delay = mdelay * (SystemCoreClock / 8U / 1000U);
 8002990:	f240 0308 	movw	r3, #8
 8002994:	f2c2 0300 	movt	r3, #8192	@ 0x2000
 8002998:	681b      	ldr	r3, [r3, #0]
 800299a:	f644 52d3 	movw	r2, #19923	@ 0x4dd3
 800299e:	f2c1 0262 	movt	r2, #4194	@ 0x1062
 80029a2:	fba2 2303 	umull	r2, r3, r2, r3
 80029a6:	0a5b      	lsrs	r3, r3, #9
 80029a8:	9301      	str	r3, [sp, #4]
  do
  {
    __NOP();
 80029aa:	bf00      	nop
  }
  while (Delay --);
 80029ac:	9b01      	ldr	r3, [sp, #4]
 80029ae:	1e5a      	subs	r2, r3, #1
 80029b0:	9201      	str	r2, [sp, #4]
 80029b2:	2b00      	cmp	r3, #0
 80029b4:	d1f9      	bne.n	80029aa <HAL_RCC_OscConfig+0x260>
  if (((RCC_OscInitStruct->OscillatorType) & RCC_OSCILLATORTYPE_LSE) == RCC_OSCILLATORTYPE_LSE)
 80029b6:	6823      	ldr	r3, [r4, #0]
 80029b8:	f013 0f04 	tst.w	r3, #4
 80029bc:	f000 80b3 	beq.w	8002b26 <HAL_RCC_OscConfig+0x3dc>
    if (__HAL_RCC_PWR_IS_CLK_DISABLED())
 80029c0:	f44f 5380 	mov.w	r3, #4096	@ 0x1000
 80029c4:	f2c4 0302 	movt	r3, #16386	@ 0x4002
 80029c8:	69db      	ldr	r3, [r3, #28]
 80029ca:	f013 5f80 	tst.w	r3, #268435456	@ 0x10000000
 80029ce:	d13f      	bne.n	8002a50 <HAL_RCC_OscConfig+0x306>
      __HAL_RCC_PWR_CLK_ENABLE();
 80029d0:	f44f 5380 	mov.w	r3, #4096	@ 0x1000
 80029d4:	f2c4 0302 	movt	r3, #16386	@ 0x4002
 80029d8:	69da      	ldr	r2, [r3, #28]
 80029da:	f042 5280 	orr.w	r2, r2, #268435456	@ 0x10000000
 80029de:	61da      	str	r2, [r3, #28]
 80029e0:	69db      	ldr	r3, [r3, #28]
 80029e2:	f003 5380 	and.w	r3, r3, #268435456	@ 0x10000000
 80029e6:	9300      	str	r3, [sp, #0]
 80029e8:	9b00      	ldr	r3, [sp, #0]
      pwrclkchanged = SET;
 80029ea:	2501      	movs	r5, #1
    if (HAL_IS_BIT_CLR(PWR->CR, PWR_CR_DBP))
 80029ec:	f44f 43e0 	mov.w	r3, #28672	@ 0x7000
 80029f0:	f2c4 0300 	movt	r3, #16384	@ 0x4000
 80029f4:	681b      	ldr	r3, [r3, #0]
 80029f6:	f413 7f80 	tst.w	r3, #256	@ 0x100
 80029fa:	d02b      	beq.n	8002a54 <HAL_RCC_OscConfig+0x30a>
    __HAL_RCC_LSE_CONFIG(RCC_OscInitStruct->LSEState);
 80029fc:	68e3      	ldr	r3, [r4, #12]
 80029fe:	2b01      	cmp	r3, #1
 8002a00:	d042      	beq.n	8002a88 <HAL_RCC_OscConfig+0x33e>
 8002a02:	2b00      	cmp	r3, #0
 8002a04:	d15e      	bne.n	8002ac4 <HAL_RCC_OscConfig+0x37a>
 8002a06:	f44f 5380 	mov.w	r3, #4096	@ 0x1000
 8002a0a:	f2c4 0302 	movt	r3, #16386	@ 0x4002
 8002a0e:	6a1a      	ldr	r2, [r3, #32]
 8002a10:	f022 0201 	bic.w	r2, r2, #1
 8002a14:	621a      	str	r2, [r3, #32]
 8002a16:	6a1a      	ldr	r2, [r3, #32]
 8002a18:	f022 0204 	bic.w	r2, r2, #4
 8002a1c:	621a      	str	r2, [r3, #32]
 8002a1e:	e03b      	b.n	8002a98 <HAL_RCC_OscConfig+0x34e>
      __HAL_RCC_LSI_DISABLE();
 8002a20:	2300      	movs	r3, #0
 8002a22:	f2c4 2342 	movt	r3, #16962	@ 0x4242
 8002a26:	2200      	movs	r2, #0
 8002a28:	f8c3 2480 	str.w	r2, [r3, #1152]	@ 0x480
      tickstart = HAL_GetTick();
 8002a2c:	f7ff fb39 	bl	80020a2 <HAL_GetTick>
 8002a30:	4605      	mov	r5, r0
      while (__HAL_RCC_GET_FLAG(RCC_FLAG_LSIRDY) != RESET)
 8002a32:	f44f 5680 	mov.w	r6, #4096	@ 0x1000
 8002a36:	f2c4 0602 	movt	r6, #16386	@ 0x4002
 8002a3a:	6a73      	ldr	r3, [r6, #36]	@ 0x24
 8002a3c:	f013 0f02 	tst.w	r3, #2
 8002a40:	d0b9      	beq.n	80029b6 <HAL_RCC_OscConfig+0x26c>
        if ((HAL_GetTick() - tickstart) > LSI_TIMEOUT_VALUE)
 8002a42:	f7ff fb2e 	bl	80020a2 <HAL_GetTick>
 8002a46:	1b40      	subs	r0, r0, r5
 8002a48:	2802      	cmp	r0, #2
 8002a4a:	d9f6      	bls.n	8002a3a <HAL_RCC_OscConfig+0x2f0>
          return HAL_TIMEOUT;
 8002a4c:	2003      	movs	r0, #3
 8002a4e:	e100      	b.n	8002c52 <HAL_RCC_OscConfig+0x508>
    FlagStatus       pwrclkchanged = RESET;
 8002a50:	2500      	movs	r5, #0
 8002a52:	e7cb      	b.n	80029ec <HAL_RCC_OscConfig+0x2a2>
      SET_BIT(PWR->CR, PWR_CR_DBP);
 8002a54:	f44f 43e0 	mov.w	r3, #28672	@ 0x7000
 8002a58:	f2c4 0300 	movt	r3, #16384	@ 0x4000
 8002a5c:	681a      	ldr	r2, [r3, #0]
 8002a5e:	f442 7280 	orr.w	r2, r2, #256	@ 0x100
 8002a62:	601a      	str	r2, [r3, #0]
      tickstart = HAL_GetTick();
 8002a64:	f7ff fb1d 	bl	80020a2 <HAL_GetTick>
 8002a68:	4606      	mov	r6, r0
      while (HAL_IS_BIT_CLR(PWR->CR, PWR_CR_DBP))
 8002a6a:	f44f 47e0 	mov.w	r7, #28672	@ 0x7000
 8002a6e:	f2c4 0700 	movt	r7, #16384	@ 0x4000
 8002a72:	683b      	ldr	r3, [r7, #0]
 8002a74:	f413 7f80 	tst.w	r3, #256	@ 0x100
 8002a78:	d1c0      	bne.n	80029fc <HAL_RCC_OscConfig+0x2b2>
        if ((HAL_GetTick() - tickstart) > RCC_DBP_TIMEOUT_VALUE)
 8002a7a:	f7ff fb12 	bl	80020a2 <HAL_GetTick>
 8002a7e:	1b80      	subs	r0, r0, r6
 8002a80:	2864      	cmp	r0, #100	@ 0x64
 8002a82:	d9f6      	bls.n	8002a72 <HAL_RCC_OscConfig+0x328>
          return HAL_TIMEOUT;
 8002a84:	2003      	movs	r0, #3
 8002a86:	e0e4      	b.n	8002c52 <HAL_RCC_OscConfig+0x508>
    __HAL_RCC_LSE_CONFIG(RCC_OscInitStruct->LSEState);
 8002a88:	f44f 5380 	mov.w	r3, #4096	@ 0x1000
 8002a8c:	f2c4 0302 	movt	r3, #16386	@ 0x4002
 8002a90:	6a1a      	ldr	r2, [r3, #32]
 8002a92:	f042 0201 	orr.w	r2, r2, #1
 8002a96:	621a      	str	r2, [r3, #32]
    if (RCC_OscInitStruct->LSEState != RCC_LSE_OFF)
 8002a98:	68e3      	ldr	r3, [r4, #12]
 8002a9a:	b37b      	cbz	r3, 8002afc <HAL_RCC_OscConfig+0x3b2>
      tickstart = HAL_GetTick();
 8002a9c:	f7ff fb01 	bl	80020a2 <HAL_GetTick>
 8002aa0:	4606      	mov	r6, r0
      while (__HAL_RCC_GET_FLAG(RCC_FLAG_LSERDY) == RESET)
 8002aa2:	f44f 5780 	mov.w	r7, #4096	@ 0x1000
 8002aa6:	f2c4 0702 	movt	r7, #16386	@ 0x4002
        if ((HAL_GetTick() - tickstart) > RCC_LSE_TIMEOUT_VALUE)
 8002aaa:	f241 3888 	movw	r8, #5000	@ 0x1388
      while (__HAL_RCC_GET_FLAG(RCC_FLAG_LSERDY) == RESET)
 8002aae:	6a3b      	ldr	r3, [r7, #32]
 8002ab0:	f013 0f02 	tst.w	r3, #2
 8002ab4:	d136      	bne.n	8002b24 <HAL_RCC_OscConfig+0x3da>
        if ((HAL_GetTick() - tickstart) > RCC_LSE_TIMEOUT_VALUE)
 8002ab6:	f7ff faf4 	bl	80020a2 <HAL_GetTick>
 8002aba:	1b80      	subs	r0, r0, r6
 8002abc:	4540      	cmp	r0, r8
 8002abe:	d9f6      	bls.n	8002aae <HAL_RCC_OscConfig+0x364>
          return HAL_TIMEOUT;
 8002ac0:	2003      	movs	r0, #3
 8002ac2:	e0c6      	b.n	8002c52 <HAL_RCC_OscConfig+0x508>
    __HAL_RCC_LSE_CONFIG(RCC_OscInitStruct->LSEState);
 8002ac4:	2b05      	cmp	r3, #5
 8002ac6:	d00c      	beq.n	8002ae2 <HAL_RCC_OscConfig+0x398>
 8002ac8:	f44f 5380 	mov.w	r3, #4096	@ 0x1000
 8002acc:	f2c4 0302 	movt	r3, #16386	@ 0x4002
 8002ad0:	6a1a      	ldr	r2, [r3, #32]
 8002ad2:	f022 0201 	bic.w	r2, r2, #1
 8002ad6:	621a      	str	r2, [r3, #32]
 8002ad8:	6a1a      	ldr	r2, [r3, #32]
 8002ada:	f022 0204 	bic.w	r2, r2, #4
 8002ade:	621a      	str	r2, [r3, #32]
 8002ae0:	e7da      	b.n	8002a98 <HAL_RCC_OscConfig+0x34e>
 8002ae2:	f44f 5380 	mov.w	r3, #4096	@ 0x1000
 8002ae6:	f2c4 0302 	movt	r3, #16386	@ 0x4002
 8002aea:	6a1a      	ldr	r2, [r3, #32]
 8002aec:	f042 0204 	orr.w	r2, r2, #4
 8002af0:	621a      	str	r2, [r3, #32]
 8002af2:	6a1a      	ldr	r2, [r3, #32]
 8002af4:	f042 0201 	orr.w	r2, r2, #1
 8002af8:	621a      	str	r2, [r3, #32]
 8002afa:	e7cd      	b.n	8002a98 <HAL_RCC_OscConfig+0x34e>
      tickstart = HAL_GetTick();
 8002afc:	f7ff fad1 	bl	80020a2 <HAL_GetTick>
 8002b00:	4606      	mov	r6, r0
      while (__HAL_RCC_GET_FLAG(RCC_FLAG_LSERDY) != RESET)
 8002b02:	f44f 5780 	mov.w	r7, #4096	@ 0x1000
 8002b06:	f2c4 0702 	movt	r7, #16386	@ 0x4002
        if ((HAL_GetTick() - tickstart) > RCC_LSE_TIMEOUT_VALUE)
 8002b0a:	f241 3888 	movw	r8, #5000	@ 0x1388
      while (__HAL_RCC_GET_FLAG(RCC_FLAG_LSERDY) != RESET)
 8002b0e:	6a3b      	ldr	r3, [r7, #32]
 8002b10:	f013 0f02 	tst.w	r3, #2
 8002b14:	d006      	beq.n	8002b24 <HAL_RCC_OscConfig+0x3da>
        if ((HAL_GetTick() - tickstart) > RCC_LSE_TIMEOUT_VALUE)
 8002b16:	f7ff fac4 	bl	80020a2 <HAL_GetTick>
 8002b1a:	1b80      	subs	r0, r0, r6
 8002b1c:	4540      	cmp	r0, r8
 8002b1e:	d9f6      	bls.n	8002b0e <HAL_RCC_OscConfig+0x3c4>
          return HAL_TIMEOUT;
 8002b20:	2003      	movs	r0, #3
 8002b22:	e096      	b.n	8002c52 <HAL_RCC_OscConfig+0x508>
    if (pwrclkchanged == SET)
 8002b24:	bb2d      	cbnz	r5, 8002b72 <HAL_RCC_OscConfig+0x428>
  if ((RCC_OscInitStruct->PLL.PLLState) != RCC_PLL_NONE)
 8002b26:	69e3      	ldr	r3, [r4, #28]
 8002b28:	2b00      	cmp	r3, #0
 8002b2a:	f000 8091 	beq.w	8002c50 <HAL_RCC_OscConfig+0x506>
    if (__HAL_RCC_GET_SYSCLK_SOURCE() != RCC_SYSCLKSOURCE_STATUS_PLLCLK)
 8002b2e:	f44f 5280 	mov.w	r2, #4096	@ 0x1000
 8002b32:	f2c4 0202 	movt	r2, #16386	@ 0x4002
 8002b36:	6852      	ldr	r2, [r2, #4]
 8002b38:	f002 020c 	and.w	r2, r2, #12
 8002b3c:	2a08      	cmp	r2, #8
 8002b3e:	d06e      	beq.n	8002c1e <HAL_RCC_OscConfig+0x4d4>
      if ((RCC_OscInitStruct->PLL.PLLState) == RCC_PLL_ON)
 8002b40:	2b02      	cmp	r3, #2
 8002b42:	d01f      	beq.n	8002b84 <HAL_RCC_OscConfig+0x43a>
        __HAL_RCC_PLL_DISABLE();
 8002b44:	2300      	movs	r3, #0
 8002b46:	f2c4 2342 	movt	r3, #16962	@ 0x4242
 8002b4a:	2200      	movs	r2, #0
 8002b4c:	661a      	str	r2, [r3, #96]	@ 0x60
        tickstart = HAL_GetTick();
 8002b4e:	f7ff faa8 	bl	80020a2 <HAL_GetTick>
 8002b52:	4604      	mov	r4, r0
        while (__HAL_RCC_GET_FLAG(RCC_FLAG_PLLRDY)  != RESET)
 8002b54:	f44f 5580 	mov.w	r5, #4096	@ 0x1000
 8002b58:	f2c4 0502 	movt	r5, #16386	@ 0x4002
 8002b5c:	682b      	ldr	r3, [r5, #0]
 8002b5e:	f013 7f00 	tst.w	r3, #33554432	@ 0x2000000
 8002b62:	d05a      	beq.n	8002c1a <HAL_RCC_OscConfig+0x4d0>
          if ((HAL_GetTick() - tickstart) > PLL_TIMEOUT_VALUE)
 8002b64:	f7ff fa9d 	bl	80020a2 <HAL_GetTick>
 8002b68:	1b00      	subs	r0, r0, r4
 8002b6a:	2802      	cmp	r0, #2
 8002b6c:	d9f6      	bls.n	8002b5c <HAL_RCC_OscConfig+0x412>
            return HAL_TIMEOUT;
 8002b6e:	2003      	movs	r0, #3
 8002b70:	e06f      	b.n	8002c52 <HAL_RCC_OscConfig+0x508>
      __HAL_RCC_PWR_CLK_DISABLE();
 8002b72:	f44f 5380 	mov.w	r3, #4096	@ 0x1000
 8002b76:	f2c4 0302 	movt	r3, #16386	@ 0x4002
 8002b7a:	69da      	ldr	r2, [r3, #28]
 8002b7c:	f022 5280 	bic.w	r2, r2, #268435456	@ 0x10000000
 8002b80:	61da      	str	r2, [r3, #28]
 8002b82:	e7d0      	b.n	8002b26 <HAL_RCC_OscConfig+0x3dc>
        __HAL_RCC_PLL_DISABLE();
 8002b84:	2300      	movs	r3, #0
 8002b86:	f2c4 2342 	movt	r3, #16962	@ 0x4242
 8002b8a:	2200      	movs	r2, #0
 8002b8c:	661a      	str	r2, [r3, #96]	@ 0x60
        tickstart = HAL_GetTick();
 8002b8e:	f7ff fa88 	bl	80020a2 <HAL_GetTick>
 8002b92:	4605      	mov	r5, r0
        while (__HAL_RCC_GET_FLAG(RCC_FLAG_PLLRDY)  != RESET)
 8002b94:	f44f 5680 	mov.w	r6, #4096	@ 0x1000
 8002b98:	f2c4 0602 	movt	r6, #16386	@ 0x4002
 8002b9c:	6833      	ldr	r3, [r6, #0]
 8002b9e:	f013 7f00 	tst.w	r3, #33554432	@ 0x2000000
 8002ba2:	d006      	beq.n	8002bb2 <HAL_RCC_OscConfig+0x468>
          if ((HAL_GetTick() - tickstart) > PLL_TIMEOUT_VALUE)
 8002ba4:	f7ff fa7d 	bl	80020a2 <HAL_GetTick>
 8002ba8:	1b40      	subs	r0, r0, r5
 8002baa:	2802      	cmp	r0, #2
 8002bac:	d9f6      	bls.n	8002b9c <HAL_RCC_OscConfig+0x452>
            return HAL_TIMEOUT;
 8002bae:	2003      	movs	r0, #3
 8002bb0:	e04f      	b.n	8002c52 <HAL_RCC_OscConfig+0x508>
        if (RCC_OscInitStruct->PLL.PLLSource == RCC_PLLSOURCE_HSE)
 8002bb2:	6a23      	ldr	r3, [r4, #32]
 8002bb4:	f5b3 3f80 	cmp.w	r3, #65536	@ 0x10000
 8002bb8:	d022      	beq.n	8002c00 <HAL_RCC_OscConfig+0x4b6>
        __HAL_RCC_PLL_CONFIG(RCC_OscInitStruct->PLL.PLLSource,
 8002bba:	f44f 5280 	mov.w	r2, #4096	@ 0x1000
 8002bbe:	f2c4 0202 	movt	r2, #16386	@ 0x4002
 8002bc2:	6851      	ldr	r1, [r2, #4]
 8002bc4:	6a23      	ldr	r3, [r4, #32]
 8002bc6:	6a60      	ldr	r0, [r4, #36]	@ 0x24
 8002bc8:	4303      	orrs	r3, r0
 8002bca:	f421 1174 	bic.w	r1, r1, #3997696	@ 0x3d0000
 8002bce:	430b      	orrs	r3, r1
 8002bd0:	6053      	str	r3, [r2, #4]
        __HAL_RCC_PLL_ENABLE();
 8002bd2:	2300      	movs	r3, #0
 8002bd4:	f2c4 2342 	movt	r3, #16962	@ 0x4242
 8002bd8:	2201      	movs	r2, #1
 8002bda:	661a      	str	r2, [r3, #96]	@ 0x60
        tickstart = HAL_GetTick();
 8002bdc:	f7ff fa61 	bl	80020a2 <HAL_GetTick>
 8002be0:	4604      	mov	r4, r0
        while (__HAL_RCC_GET_FLAG(RCC_FLAG_PLLRDY)  == RESET)
 8002be2:	f44f 5580 	mov.w	r5, #4096	@ 0x1000
 8002be6:	f2c4 0502 	movt	r5, #16386	@ 0x4002
 8002bea:	682b      	ldr	r3, [r5, #0]
 8002bec:	f013 7f00 	tst.w	r3, #33554432	@ 0x2000000
 8002bf0:	d111      	bne.n	8002c16 <HAL_RCC_OscConfig+0x4cc>
          if ((HAL_GetTick() - tickstart) > PLL_TIMEOUT_VALUE)
 8002bf2:	f7ff fa56 	bl	80020a2 <HAL_GetTick>
 8002bf6:	1b00      	subs	r0, r0, r4
 8002bf8:	2802      	cmp	r0, #2
 8002bfa:	d9f6      	bls.n	8002bea <HAL_RCC_OscConfig+0x4a0>
            return HAL_TIMEOUT;
 8002bfc:	2003      	movs	r0, #3
 8002bfe:	e028      	b.n	8002c52 <HAL_RCC_OscConfig+0x508>
          __HAL_RCC_HSE_PREDIV_CONFIG(RCC_OscInitStruct->HSEPredivValue);
 8002c00:	f44f 5280 	mov.w	r2, #4096	@ 0x1000
 8002c04:	f2c4 0202 	movt	r2, #16386	@ 0x4002
 8002c08:	6ad3      	ldr	r3, [r2, #44]	@ 0x2c
 8002c0a:	f023 030f 	bic.w	r3, r3, #15
 8002c0e:	68a1      	ldr	r1, [r4, #8]
 8002c10:	430b      	orrs	r3, r1
 8002c12:	62d3      	str	r3, [r2, #44]	@ 0x2c
 8002c14:	e7d1      	b.n	8002bba <HAL_RCC_OscConfig+0x470>
  return HAL_OK;
 8002c16:	2000      	movs	r0, #0
 8002c18:	e01b      	b.n	8002c52 <HAL_RCC_OscConfig+0x508>
 8002c1a:	2000      	movs	r0, #0
 8002c1c:	e019      	b.n	8002c52 <HAL_RCC_OscConfig+0x508>
      if ((RCC_OscInitStruct->PLL.PLLState) == RCC_PLL_OFF)
 8002c1e:	2b01      	cmp	r3, #1
 8002c20:	d01a      	beq.n	8002c58 <HAL_RCC_OscConfig+0x50e>
        pll_config = RCC->CFGR;
 8002c22:	f44f 5380 	mov.w	r3, #4096	@ 0x1000
 8002c26:	f2c4 0302 	movt	r3, #16386	@ 0x4002
 8002c2a:	685b      	ldr	r3, [r3, #4]
        if ((READ_BIT(pll_config, RCC_CFGR_PLLSRC) != RCC_OscInitStruct->PLL.PLLSource) ||
 8002c2c:	f403 3180 	and.w	r1, r3, #65536	@ 0x10000
 8002c30:	6a22      	ldr	r2, [r4, #32]
 8002c32:	4291      	cmp	r1, r2
 8002c34:	d112      	bne.n	8002c5c <HAL_RCC_OscConfig+0x512>
            (READ_BIT(pll_config, RCC_CFGR_PLLMULL) != RCC_OscInitStruct->PLL.PLLMUL))
 8002c36:	f403 1370 	and.w	r3, r3, #3932160	@ 0x3c0000
        if ((READ_BIT(pll_config, RCC_CFGR_PLLSRC) != RCC_OscInitStruct->PLL.PLLSource) ||
 8002c3a:	6a60      	ldr	r0, [r4, #36]	@ 0x24
 8002c3c:	1a18      	subs	r0, r3, r0
 8002c3e:	bf18      	it	ne
 8002c40:	2001      	movne	r0, #1
 8002c42:	e006      	b.n	8002c52 <HAL_RCC_OscConfig+0x508>
    return HAL_ERROR;
 8002c44:	2001      	movs	r0, #1
}
 8002c46:	4770      	bx	lr
        return HAL_ERROR;
 8002c48:	2001      	movs	r0, #1
 8002c4a:	e002      	b.n	8002c52 <HAL_RCC_OscConfig+0x508>
        return HAL_ERROR;
 8002c4c:	2001      	movs	r0, #1
 8002c4e:	e000      	b.n	8002c52 <HAL_RCC_OscConfig+0x508>
  return HAL_OK;
 8002c50:	2000      	movs	r0, #0
}
 8002c52:	b002      	add	sp, #8
 8002c54:	e8bd 81f0 	ldmia.w	sp!, {r4, r5, r6, r7, r8, pc}
        return HAL_ERROR;
 8002c58:	2001      	movs	r0, #1
 8002c5a:	e7fa      	b.n	8002c52 <HAL_RCC_OscConfig+0x508>
          return HAL_ERROR;
 8002c5c:	2001      	movs	r0, #1
 8002c5e:	e7f8      	b.n	8002c52 <HAL_RCC_OscConfig+0x508>

08002c60 <HAL_RCC_EnableCSS>:
  *(__IO uint32_t *) RCC_CR_CSSON_BB = (uint32_t)ENABLE;
 8002c60:	2300      	movs	r3, #0
 8002c62:	f2c4 2342 	movt	r3, #16962	@ 0x4242
 8002c66:	2201      	movs	r2, #1
 8002c68:	64da      	str	r2, [r3, #76]	@ 0x4c
}
 8002c6a:	4770      	bx	lr

08002c6c <HAL_RCC_GetSysClockFreq>:
  tmpreg = RCC->CFGR;
 8002c6c:	f44f 5380 	mov.w	r3, #4096	@ 0x1000
 8002c70:	f2c4 0302 	movt	r3, #16386	@ 0x4002
 8002c74:	685b      	ldr	r3, [r3, #4]
  switch (tmpreg & RCC_CFGR_SWS)
 8002c76:	f003 020c 	and.w	r2, r3, #12
 8002c7a:	2a04      	cmp	r2, #4
 8002c7c:	d027      	beq.n	8002cce <HAL_RCC_GetSysClockFreq+0x62>
 8002c7e:	2a08      	cmp	r2, #8
 8002c80:	d12a      	bne.n	8002cd8 <HAL_RCC_GetSysClockFreq+0x6c>
      pllmul = aPLLMULFactorTable[(uint32_t)(tmpreg & RCC_CFGR_PLLMULL) >> RCC_CFGR_PLLMULL_Pos];
 8002c82:	f643 42cc 	movw	r2, #15564	@ 0x3ccc
 8002c86:	f6c0 0200 	movt	r2, #2048	@ 0x800
 8002c8a:	f3c3 4183 	ubfx	r1, r3, #18, #4
 8002c8e:	5c50      	ldrb	r0, [r2, r1]
      if ((tmpreg & RCC_CFGR_PLLSRC) != RCC_PLLSOURCE_HSI_DIV2)
 8002c90:	f413 3f80 	tst.w	r3, #65536	@ 0x10000
 8002c94:	d014      	beq.n	8002cc0 <HAL_RCC_GetSysClockFreq+0x54>
        prediv = aPredivFactorTable[(uint32_t)(RCC->CFGR2 & RCC_CFGR2_PREDIV1) >> RCC_CFGR2_PREDIV1_Pos];
 8002c96:	f44f 5380 	mov.w	r3, #4096	@ 0x1000
 8002c9a:	f2c4 0302 	movt	r3, #16386	@ 0x4002
 8002c9e:	6adb      	ldr	r3, [r3, #44]	@ 0x2c
        pllclk = (uint32_t)((HSE_VALUE  * pllmul) / prediv);
 8002ca0:	f44f 5258 	mov.w	r2, #13824	@ 0x3600
 8002ca4:	f2c0 126e 	movt	r2, #366	@ 0x16e
 8002ca8:	fb02 f000 	mul.w	r0, r2, r0
        prediv = aPredivFactorTable[(uint32_t)(RCC->CFGR2 & RCC_CFGR2_PREDIV1) >> RCC_CFGR2_PREDIV1_Pos];
 8002cac:	f643 42bc 	movw	r2, #15548	@ 0x3cbc
 8002cb0:	f6c0 0200 	movt	r2, #2048	@ 0x800
 8002cb4:	f003 030f 	and.w	r3, r3, #15
 8002cb8:	5cd3      	ldrb	r3, [r2, r3]
        pllclk = (uint32_t)((HSE_VALUE  * pllmul) / prediv);
 8002cba:	fbb0 f0f3 	udiv	r0, r0, r3
 8002cbe:	4770      	bx	lr
        pllclk = (uint32_t)((HSI_VALUE >> 1) * pllmul);
 8002cc0:	f44f 6310 	mov.w	r3, #2304	@ 0x900
 8002cc4:	f2c0 033d 	movt	r3, #61	@ 0x3d
 8002cc8:	fb03 f000 	mul.w	r0, r3, r0
 8002ccc:	4770      	bx	lr
      sysclockfreq = HSE_VALUE;
 8002cce:	f44f 5058 	mov.w	r0, #13824	@ 0x3600
 8002cd2:	f2c0 106e 	movt	r0, #366	@ 0x16e
 8002cd6:	4770      	bx	lr
  switch (tmpreg & RCC_CFGR_SWS)
 8002cd8:	f44f 5090 	mov.w	r0, #4608	@ 0x1200
 8002cdc:	f2c0 007a 	movt	r0, #122	@ 0x7a
}
 8002ce0:	4770      	bx	lr

08002ce2 <HAL_RCC_ClockConfig>:
  if (RCC_ClkInitStruct == NULL)
 8002ce2:	2800      	cmp	r0, #0
 8002ce4:	f000 80a6 	beq.w	8002e34 <HAL_RCC_ClockConfig+0x152>
{
 8002ce8:	b5f8      	push	{r3, r4, r5, r6, r7, lr}
 8002cea:	4604      	mov	r4, r0
if (((RCC_ClkInitStruct->ClockType) & RCC_CLOCKTYPE_HCLK) == RCC_CLOCKTYPE_HCLK)
 8002cec:	6803      	ldr	r3, [r0, #0]
 8002cee:	f013 0f02 	tst.w	r3, #2
 8002cf2:	d020      	beq.n	8002d36 <HAL_RCC_ClockConfig+0x54>
    if (((RCC_ClkInitStruct->ClockType) & RCC_CLOCKTYPE_PCLK1) == RCC_CLOCKTYPE_PCLK1)
 8002cf4:	f013 0f04 	tst.w	r3, #4
 8002cf8:	d007      	beq.n	8002d0a <HAL_RCC_ClockConfig+0x28>
      MODIFY_REG(RCC->CFGR, RCC_CFGR_PPRE1, RCC_HCLK_DIV16);
 8002cfa:	f44f 5380 	mov.w	r3, #4096	@ 0x1000
 8002cfe:	f2c4 0302 	movt	r3, #16386	@ 0x4002
 8002d02:	685a      	ldr	r2, [r3, #4]
 8002d04:	f442 62e0 	orr.w	r2, r2, #1792	@ 0x700
 8002d08:	605a      	str	r2, [r3, #4]
    if (((RCC_ClkInitStruct->ClockType) & RCC_CLOCKTYPE_PCLK2) == RCC_CLOCKTYPE_PCLK2)
 8002d0a:	6823      	ldr	r3, [r4, #0]
 8002d0c:	f013 0f08 	tst.w	r3, #8
 8002d10:	d007      	beq.n	8002d22 <HAL_RCC_ClockConfig+0x40>
      MODIFY_REG(RCC->CFGR, RCC_CFGR_PPRE2, (RCC_HCLK_DIV16 << 3));
 8002d12:	f44f 5380 	mov.w	r3, #4096	@ 0x1000
 8002d16:	f2c4 0302 	movt	r3, #16386	@ 0x4002
 8002d1a:	685a      	ldr	r2, [r3, #4]
 8002d1c:	f442 5260 	orr.w	r2, r2, #14336	@ 0x3800
 8002d20:	605a      	str	r2, [r3, #4]
    MODIFY_REG(RCC->CFGR, RCC_CFGR_HPRE, RCC_ClkInitStruct->AHBCLKDivider);
 8002d22:	f44f 5280 	mov.w	r2, #4096	@ 0x1000
 8002d26:	f2c4 0202 	movt	r2, #16386	@ 0x4002
 8002d2a:	6853      	ldr	r3, [r2, #4]
 8002d2c:	f023 03f0 	bic.w	r3, r3, #240	@ 0xf0
 8002d30:	68a1      	ldr	r1, [r4, #8]
 8002d32:	430b      	orrs	r3, r1
 8002d34:	6053      	str	r3, [r2, #4]
  if (((RCC_ClkInitStruct->ClockType) & RCC_CLOCKTYPE_SYSCLK) == RCC_CLOCKTYPE_SYSCLK)
 8002d36:	6823      	ldr	r3, [r4, #0]
 8002d38:	f013 0f01 	tst.w	r3, #1
 8002d3c:	d040      	beq.n	8002dc0 <HAL_RCC_ClockConfig+0xde>
    if (RCC_ClkInitStruct->SYSCLKSource == RCC_SYSCLKSOURCE_HSE)
 8002d3e:	6862      	ldr	r2, [r4, #4]
 8002d40:	2a01      	cmp	r2, #1
 8002d42:	d029      	beq.n	8002d98 <HAL_RCC_ClockConfig+0xb6>
    else if (RCC_ClkInitStruct->SYSCLKSource == RCC_SYSCLKSOURCE_PLLCLK)
 8002d44:	2a02      	cmp	r2, #2
 8002d46:	d031      	beq.n	8002dac <HAL_RCC_ClockConfig+0xca>
      if (__HAL_RCC_GET_FLAG(RCC_FLAG_HSIRDY) == RESET)
 8002d48:	f44f 5380 	mov.w	r3, #4096	@ 0x1000
 8002d4c:	f2c4 0302 	movt	r3, #16386	@ 0x4002
 8002d50:	681b      	ldr	r3, [r3, #0]
 8002d52:	f013 0f02 	tst.w	r3, #2
 8002d56:	d06f      	beq.n	8002e38 <HAL_RCC_ClockConfig+0x156>
    __HAL_RCC_SYSCLK_CONFIG(RCC_ClkInitStruct->SYSCLKSource);
 8002d58:	f44f 5180 	mov.w	r1, #4096	@ 0x1000
 8002d5c:	f2c4 0102 	movt	r1, #16386	@ 0x4002
 8002d60:	684b      	ldr	r3, [r1, #4]
 8002d62:	f023 0303 	bic.w	r3, r3, #3
 8002d66:	4313      	orrs	r3, r2
 8002d68:	604b      	str	r3, [r1, #4]
    tickstart = HAL_GetTick();
 8002d6a:	f7ff f99a 	bl	80020a2 <HAL_GetTick>
 8002d6e:	4605      	mov	r5, r0
    while (__HAL_RCC_GET_SYSCLK_SOURCE() != (RCC_ClkInitStruct->SYSCLKSource << RCC_CFGR_SWS_Pos))
 8002d70:	f44f 5680 	mov.w	r6, #4096	@ 0x1000
 8002d74:	f2c4 0602 	movt	r6, #16386	@ 0x4002
      if ((HAL_GetTick() - tickstart) > CLOCKSWITCH_TIMEOUT_VALUE)
 8002d78:	f241 3788 	movw	r7, #5000	@ 0x1388
    while (__HAL_RCC_GET_SYSCLK_SOURCE() != (RCC_ClkInitStruct->SYSCLKSource << RCC_CFGR_SWS_Pos))
 8002d7c:	6873      	ldr	r3, [r6, #4]
 8002d7e:	f003 030c 	and.w	r3, r3, #12
 8002d82:	6862      	ldr	r2, [r4, #4]
 8002d84:	ebb3 0f82 	cmp.w	r3, r2, lsl #2
 8002d88:	d01a      	beq.n	8002dc0 <HAL_RCC_ClockConfig+0xde>
      if ((HAL_GetTick() - tickstart) > CLOCKSWITCH_TIMEOUT_VALUE)
 8002d8a:	f7ff f98a 	bl	80020a2 <HAL_GetTick>
 8002d8e:	1b40      	subs	r0, r0, r5
 8002d90:	42b8      	cmp	r0, r7
 8002d92:	d9f3      	bls.n	8002d7c <HAL_RCC_ClockConfig+0x9a>
        return HAL_TIMEOUT;
 8002d94:	2003      	movs	r0, #3
 8002d96:	e04c      	b.n	8002e32 <HAL_RCC_ClockConfig+0x150>
      if (__HAL_RCC_GET_FLAG(RCC_FLAG_HSERDY) == RESET)
 8002d98:	f44f 5380 	mov.w	r3, #4096	@ 0x1000
 8002d9c:	f2c4 0302 	movt	r3, #16386	@ 0x4002
 8002da0:	681b      	ldr	r3, [r3, #0]
 8002da2:	f413 3f00 	tst.w	r3, #131072	@ 0x20000
 8002da6:	d1d7      	bne.n	8002d58 <HAL_RCC_ClockConfig+0x76>
        return HAL_ERROR;
 8002da8:	2001      	movs	r0, #1
 8002daa:	e042      	b.n	8002e32 <HAL_RCC_ClockConfig+0x150>
      if (__HAL_RCC_GET_FLAG(RCC_FLAG_PLLRDY) == RESET)
 8002dac:	f44f 5380 	mov.w	r3, #4096	@ 0x1000
 8002db0:	f2c4 0302 	movt	r3, #16386	@ 0x4002
 8002db4:	681b      	ldr	r3, [r3, #0]
 8002db6:	f013 7f00 	tst.w	r3, #33554432	@ 0x2000000
 8002dba:	d1cd      	bne.n	8002d58 <HAL_RCC_ClockConfig+0x76>
        return HAL_ERROR;
 8002dbc:	2001      	movs	r0, #1
 8002dbe:	e038      	b.n	8002e32 <HAL_RCC_ClockConfig+0x150>
if (((RCC_ClkInitStruct->ClockType) & RCC_CLOCKTYPE_PCLK1) == RCC_CLOCKTYPE_PCLK1)
 8002dc0:	6823      	ldr	r3, [r4, #0]
 8002dc2:	f013 0f04 	tst.w	r3, #4
 8002dc6:	d009      	beq.n	8002ddc <HAL_RCC_ClockConfig+0xfa>
    MODIFY_REG(RCC->CFGR, RCC_CFGR_PPRE1, RCC_ClkInitStruct->APB1CLKDivider);
 8002dc8:	f44f 5280 	mov.w	r2, #4096	@ 0x1000
 8002dcc:	f2c4 0202 	movt	r2, #16386	@ 0x4002
 8002dd0:	6853      	ldr	r3, [r2, #4]
 8002dd2:	f423 63e0 	bic.w	r3, r3, #1792	@ 0x700
 8002dd6:	68e1      	ldr	r1, [r4, #12]
 8002dd8:	430b      	orrs	r3, r1
 8002dda:	6053      	str	r3, [r2, #4]
  if (((RCC_ClkInitStruct->ClockType) & RCC_CLOCKTYPE_PCLK2) == RCC_CLOCKTYPE_PCLK2)
 8002ddc:	6823      	ldr	r3, [r4, #0]
 8002dde:	f013 0f08 	tst.w	r3, #8
 8002de2:	d00a      	beq.n	8002dfa <HAL_RCC_ClockConfig+0x118>
    MODIFY_REG(RCC->CFGR, RCC_CFGR_PPRE2, ((RCC_ClkInitStruct->APB2CLKDivider) << 3));
 8002de4:	f44f 5280 	mov.w	r2, #4096	@ 0x1000
 8002de8:	f2c4 0202 	movt	r2, #16386	@ 0x4002
 8002dec:	6853      	ldr	r3, [r2, #4]
 8002dee:	6921      	ldr	r1, [r4, #16]
 8002df0:	f423 5360 	bic.w	r3, r3, #14336	@ 0x3800
 8002df4:	ea43 03c1 	orr.w	r3, r3, r1, lsl #3
 8002df8:	6053      	str	r3, [r2, #4]
  SystemCoreClock = HAL_RCC_GetSysClockFreq() >> AHBPrescTable[(RCC->CFGR & RCC_CFGR_HPRE) >> RCC_CFGR_HPRE_Pos];
 8002dfa:	f7ff ff37 	bl	8002c6c <HAL_RCC_GetSysClockFreq>
 8002dfe:	f44f 5380 	mov.w	r3, #4096	@ 0x1000
 8002e02:	f2c4 0302 	movt	r3, #16386	@ 0x4002
 8002e06:	685a      	ldr	r2, [r3, #4]
 8002e08:	f240 0308 	movw	r3, #8
 8002e0c:	f2c2 0300 	movt	r3, #8192	@ 0x2000
 8002e10:	f643 41ac 	movw	r1, #15532	@ 0x3cac
 8002e14:	f6c0 0100 	movt	r1, #2048	@ 0x800
 8002e18:	f3c2 1203 	ubfx	r2, r2, #4, #4
 8002e1c:	5c8a      	ldrb	r2, [r1, r2]
 8002e1e:	40d0      	lsrs	r0, r2
 8002e20:	6018      	str	r0, [r3, #0]
  HAL_InitTick(uwTickPrio);
 8002e22:	f240 0310 	movw	r3, #16
 8002e26:	f2c2 0300 	movt	r3, #8192	@ 0x2000
 8002e2a:	6818      	ldr	r0, [r3, #0]
 8002e2c:	f7ff f8f9 	bl	8002022 <HAL_InitTick>
  return HAL_OK;
 8002e30:	2000      	movs	r0, #0
}
 8002e32:	bdf8      	pop	{r3, r4, r5, r6, r7, pc}
    return HAL_ERROR;
 8002e34:	2001      	movs	r0, #1
}
 8002e36:	4770      	bx	lr
        return HAL_ERROR;
 8002e38:	2001      	movs	r0, #1
 8002e3a:	e7fa      	b.n	8002e32 <HAL_RCC_ClockConfig+0x150>

08002e3c <HAL_RCC_GetPCLK1Freq>:
  return (HAL_RCC_GetHCLKFreq() >> APBPrescTable[(RCC->CFGR & RCC_CFGR_PPRE1) >> RCC_CFGR_PPRE1_Pos]);
 8002e3c:	f44f 5380 	mov.w	r3, #4096	@ 0x1000
 8002e40:	f2c4 0302 	movt	r3, #16386	@ 0x4002
 8002e44:	685a      	ldr	r2, [r3, #4]
  return SystemCoreClock;
 8002e46:	f240 0308 	movw	r3, #8
 8002e4a:	f2c2 0300 	movt	r3, #8192	@ 0x2000
  return (HAL_RCC_GetHCLKFreq() >> APBPrescTable[(RCC->CFGR & RCC_CFGR_PPRE1) >> RCC_CFGR_PPRE1_Pos]);
 8002e4e:	f643 41a4 	movw	r1, #15524	@ 0x3ca4
 8002e52:	f6c0 0100 	movt	r1, #2048	@ 0x800
 8002e56:	f3c2 2202 	ubfx	r2, r2, #8, #3
 8002e5a:	5c8a      	ldrb	r2, [r1, r2]
 8002e5c:	6818      	ldr	r0, [r3, #0]
}
 8002e5e:	40d0      	lsrs	r0, r2
 8002e60:	4770      	bx	lr

08002e62 <HAL_RCC_GetPCLK2Freq>:
  return (HAL_RCC_GetHCLKFreq() >> APBPrescTable[(RCC->CFGR & RCC_CFGR_PPRE2) >> RCC_CFGR_PPRE2_Pos]);
 8002e62:	f44f 5380 	mov.w	r3, #4096	@ 0x1000
 8002e66:	f2c4 0302 	movt	r3, #16386	@ 0x4002
 8002e6a:	685a      	ldr	r2, [r3, #4]
  return SystemCoreClock;
 8002e6c:	f240 0308 	movw	r3, #8
 8002e70:	f2c2 0300 	movt	r3, #8192	@ 0x2000
  return (HAL_RCC_GetHCLKFreq() >> APBPrescTable[(RCC->CFGR & RCC_CFGR_PPRE2) >> RCC_CFGR_PPRE2_Pos]);
 8002e74:	f643 41a4 	movw	r1, #15524	@ 0x3ca4
 8002e78:	f6c0 0100 	movt	r1, #2048	@ 0x800
 8002e7c:	f3c2 22c2 	ubfx	r2, r2, #11, #3
 8002e80:	5c8a      	ldrb	r2, [r1, r2]
 8002e82:	6818      	ldr	r0, [r3, #0]
}
 8002e84:	40d0      	lsrs	r0, r2
 8002e86:	4770      	bx	lr

08002e88 <HAL_RCC_CSSCallback>:
__weak void HAL_RCC_CSSCallback(void)
{
  /* NOTE : This function Should not be modified, when the callback is needed,
    the HAL_RCC_CSSCallback could be implemented in the user file
    */
}
 8002e88:	4770      	bx	lr

08002e8a <HAL_RCC_NMI_IRQHandler>:
{
 8002e8a:	b508      	push	{r3, lr}
  if (__HAL_RCC_GET_IT(RCC_IT_CSS))
 8002e8c:	f44f 5380 	mov.w	r3, #4096	@ 0x1000
 8002e90:	f2c4 0302 	movt	r3, #16386	@ 0x4002
 8002e94:	689b      	ldr	r3, [r3, #8]
 8002e96:	f013 0f80 	tst.w	r3, #128	@ 0x80
 8002e9a:	d100      	bne.n	8002e9e <HAL_RCC_NMI_IRQHandler+0x14>
}
 8002e9c:	bd08      	pop	{r3, pc}
    HAL_RCC_CSSCallback();
 8002e9e:	f7ff fff3 	bl	8002e88 <HAL_RCC_CSSCallback>
    __HAL_RCC_CLEAR_IT(RCC_IT_CSS);
 8002ea2:	f44f 5380 	mov.w	r3, #4096	@ 0x1000
 8002ea6:	f2c4 0302 	movt	r3, #16386	@ 0x4002
 8002eaa:	2280      	movs	r2, #128	@ 0x80
 8002eac:	729a      	strb	r2, [r3, #10]
}
 8002eae:	e7f5      	b.n	8002e9c <HAL_RCC_NMI_IRQHandler+0x12>

08002eb0 <HAL_RCCEx_PeriphCLKConfig>:
  *         manually disable it.
  *
  * @retval HAL status
  */
HAL_StatusTypeDef HAL_RCCEx_PeriphCLKConfig(RCC_PeriphCLKInitTypeDef  *PeriphClkInit)
{
 8002eb0:	e92d 41f0 	stmdb	sp!, {r4, r5, r6, r7, r8, lr}
 8002eb4:	b082      	sub	sp, #8
 8002eb6:	4604      	mov	r4, r0

  /* Check the parameters */
  assert_param(IS_RCC_PERIPHCLOCK(PeriphClkInit->PeriphClockSelection));

  /*------------------------------- RTC/LCD Configuration ------------------------*/
  if ((((PeriphClkInit->PeriphClockSelection) & RCC_PERIPHCLK_RTC) == RCC_PERIPHCLK_RTC))
 8002eb8:	6803      	ldr	r3, [r0, #0]
 8002eba:	f013 0f01 	tst.w	r3, #1
 8002ebe:	d04a      	beq.n	8002f56 <HAL_RCCEx_PeriphCLKConfig+0xa6>
    assert_param(IS_RCC_RTCCLKSOURCE(PeriphClkInit->RTCClockSelection));

    /* As soon as function is called to change RTC clock source, activation of the
       power domain is done. */
    /* Requires to enable write access to Backup Domain of necessary */
    if (__HAL_RCC_PWR_IS_CLK_DISABLED())
 8002ec0:	f44f 5380 	mov.w	r3, #4096	@ 0x1000
 8002ec4:	f2c4 0302 	movt	r3, #16386	@ 0x4002
 8002ec8:	69db      	ldr	r3, [r3, #28]
 8002eca:	f013 5f80 	tst.w	r3, #268435456	@ 0x10000000
 8002ece:	d152      	bne.n	8002f76 <HAL_RCCEx_PeriphCLKConfig+0xc6>
    {
      __HAL_RCC_PWR_CLK_ENABLE();
 8002ed0:	f44f 5380 	mov.w	r3, #4096	@ 0x1000
 8002ed4:	f2c4 0302 	movt	r3, #16386	@ 0x4002
 8002ed8:	69da      	ldr	r2, [r3, #28]
 8002eda:	f042 5280 	orr.w	r2, r2, #268435456	@ 0x10000000
 8002ede:	61da      	str	r2, [r3, #28]
 8002ee0:	69db      	ldr	r3, [r3, #28]
 8002ee2:	f003 5380 	and.w	r3, r3, #268435456	@ 0x10000000
 8002ee6:	9301      	str	r3, [sp, #4]
 8002ee8:	9b01      	ldr	r3, [sp, #4]
      pwrclkchanged = SET;
 8002eea:	2501      	movs	r5, #1
    }

    if (HAL_IS_BIT_CLR(PWR->CR, PWR_CR_DBP))
 8002eec:	f44f 43e0 	mov.w	r3, #28672	@ 0x7000
 8002ef0:	f2c4 0300 	movt	r3, #16384	@ 0x4000
 8002ef4:	681b      	ldr	r3, [r3, #0]
 8002ef6:	f413 7f80 	tst.w	r3, #256	@ 0x100
 8002efa:	d03e      	beq.n	8002f7a <HAL_RCCEx_PeriphCLKConfig+0xca>
        }
      }
    }

    /* Reset the Backup domain only if the RTC Clock source selection is modified from reset value */
    temp_reg = (RCC->BDCR & RCC_BDCR_RTCSEL);
 8002efc:	f44f 5380 	mov.w	r3, #4096	@ 0x1000
 8002f00:	f2c4 0302 	movt	r3, #16386	@ 0x4002
 8002f04:	6a1b      	ldr	r3, [r3, #32]
    if ((temp_reg != 0x00000000U) && (temp_reg != (PeriphClkInit->RTCClockSelection & RCC_BDCR_RTCSEL)))
 8002f06:	f413 7340 	ands.w	r3, r3, #768	@ 0x300
 8002f0a:	d018      	beq.n	8002f3e <HAL_RCCEx_PeriphCLKConfig+0x8e>
 8002f0c:	6862      	ldr	r2, [r4, #4]
 8002f0e:	f402 7240 	and.w	r2, r2, #768	@ 0x300
 8002f12:	429a      	cmp	r2, r3
 8002f14:	d013      	beq.n	8002f3e <HAL_RCCEx_PeriphCLKConfig+0x8e>
    {
      /* Store the content of BDCR register before the reset of Backup Domain */
      temp_reg = (RCC->BDCR & ~(RCC_BDCR_RTCSEL));
 8002f16:	f44f 5380 	mov.w	r3, #4096	@ 0x1000
 8002f1a:	f2c4 0302 	movt	r3, #16386	@ 0x4002
 8002f1e:	6a19      	ldr	r1, [r3, #32]
 8002f20:	f421 7040 	bic.w	r0, r1, #768	@ 0x300
      /* RTC Clock selection can be changed only if the Backup Domain is reset */
      __HAL_RCC_BACKUPRESET_FORCE();
 8002f24:	2200      	movs	r2, #0
 8002f26:	f2c4 2242 	movt	r2, #16962	@ 0x4242
 8002f2a:	2601      	movs	r6, #1
 8002f2c:	f8c2 6440 	str.w	r6, [r2, #1088]	@ 0x440
      __HAL_RCC_BACKUPRESET_RELEASE();
 8002f30:	2600      	movs	r6, #0
 8002f32:	f8c2 6440 	str.w	r6, [r2, #1088]	@ 0x440
      /* Restore the Content of BDCR register */
      RCC->BDCR = temp_reg;
 8002f36:	6218      	str	r0, [r3, #32]

      /* Wait for LSERDY if LSE was enabled */
      if (HAL_IS_BIT_SET(temp_reg, RCC_BDCR_LSEON))
 8002f38:	f011 0f01 	tst.w	r1, #1
 8002f3c:	d137      	bne.n	8002fae <HAL_RCCEx_PeriphCLKConfig+0xfe>
            return HAL_TIMEOUT;
          }
        }
      }
    }
    __HAL_RCC_RTC_CONFIG(PeriphClkInit->RTCClockSelection);
 8002f3e:	f44f 5280 	mov.w	r2, #4096	@ 0x1000
 8002f42:	f2c4 0202 	movt	r2, #16386	@ 0x4002
 8002f46:	6a13      	ldr	r3, [r2, #32]
 8002f48:	f423 7340 	bic.w	r3, r3, #768	@ 0x300
 8002f4c:	6861      	ldr	r1, [r4, #4]
 8002f4e:	430b      	orrs	r3, r1
 8002f50:	6213      	str	r3, [r2, #32]

    /* Require to disable power clock if necessary */
    if (pwrclkchanged == SET)
 8002f52:	2d00      	cmp	r5, #0
 8002f54:	d13f      	bne.n	8002fd6 <HAL_RCCEx_PeriphCLKConfig+0x126>
      __HAL_RCC_PWR_CLK_DISABLE();
    }
  }

  /*------------------------------ ADC clock Configuration ------------------*/
  if (((PeriphClkInit->PeriphClockSelection) & RCC_PERIPHCLK_ADC) == RCC_PERIPHCLK_ADC)
 8002f56:	6823      	ldr	r3, [r4, #0]
 8002f58:	f013 0f02 	tst.w	r3, #2
 8002f5c:	d044      	beq.n	8002fe8 <HAL_RCCEx_PeriphCLKConfig+0x138>
  {
    /* Check the parameters */
    assert_param(IS_RCC_ADCPLLCLK_DIV(PeriphClkInit->AdcClockSelection));

    /* Configure the ADC clock source */
    __HAL_RCC_ADC_CONFIG(PeriphClkInit->AdcClockSelection);
 8002f5e:	f44f 5280 	mov.w	r2, #4096	@ 0x1000
 8002f62:	f2c4 0202 	movt	r2, #16386	@ 0x4002
 8002f66:	6853      	ldr	r3, [r2, #4]
 8002f68:	f423 4340 	bic.w	r3, r3, #49152	@ 0xc000
 8002f6c:	68a1      	ldr	r1, [r4, #8]
 8002f6e:	430b      	orrs	r3, r1
 8002f70:	6053      	str	r3, [r2, #4]
    /* Configure the USB clock source */
    __HAL_RCC_USB_CONFIG(PeriphClkInit->UsbClockSelection);
  }
#endif /* STM32F102x6 || STM32F102xB || STM32F103x6 || STM32F103xB || STM32F103xE || STM32F103xG || STM32F105xC || STM32F107xC */

  return HAL_OK;
 8002f72:	2000      	movs	r0, #0
 8002f74:	e039      	b.n	8002fea <HAL_RCCEx_PeriphCLKConfig+0x13a>
    FlagStatus pwrclkchanged = RESET;
 8002f76:	2500      	movs	r5, #0
 8002f78:	e7b8      	b.n	8002eec <HAL_RCCEx_PeriphCLKConfig+0x3c>
      SET_BIT(PWR->CR, PWR_CR_DBP);
 8002f7a:	f44f 43e0 	mov.w	r3, #28672	@ 0x7000
 8002f7e:	f2c4 0300 	movt	r3, #16384	@ 0x4000
 8002f82:	681a      	ldr	r2, [r3, #0]
 8002f84:	f442 7280 	orr.w	r2, r2, #256	@ 0x100
 8002f88:	601a      	str	r2, [r3, #0]
      tickstart = HAL_GetTick();
 8002f8a:	f7ff f88a 	bl	80020a2 <HAL_GetTick>
 8002f8e:	4606      	mov	r6, r0
      while (HAL_IS_BIT_CLR(PWR->CR, PWR_CR_DBP))
 8002f90:	f44f 47e0 	mov.w	r7, #28672	@ 0x7000
 8002f94:	f2c4 0700 	movt	r7, #16384	@ 0x4000
 8002f98:	683b      	ldr	r3, [r7, #0]
 8002f9a:	f413 7f80 	tst.w	r3, #256	@ 0x100
 8002f9e:	d1ad      	bne.n	8002efc <HAL_RCCEx_PeriphCLKConfig+0x4c>
        if ((HAL_GetTick() - tickstart) > RCC_DBP_TIMEOUT_VALUE)
 8002fa0:	f7ff f87f 	bl	80020a2 <HAL_GetTick>
 8002fa4:	1b80      	subs	r0, r0, r6
 8002fa6:	2864      	cmp	r0, #100	@ 0x64
 8002fa8:	d9f6      	bls.n	8002f98 <HAL_RCCEx_PeriphCLKConfig+0xe8>
          return HAL_TIMEOUT;
 8002faa:	2003      	movs	r0, #3
 8002fac:	e01d      	b.n	8002fea <HAL_RCCEx_PeriphCLKConfig+0x13a>
        tickstart = HAL_GetTick();
 8002fae:	f7ff f878 	bl	80020a2 <HAL_GetTick>
 8002fb2:	4606      	mov	r6, r0
        while (__HAL_RCC_GET_FLAG(RCC_FLAG_LSERDY) == RESET)
 8002fb4:	f44f 5780 	mov.w	r7, #4096	@ 0x1000
 8002fb8:	f2c4 0702 	movt	r7, #16386	@ 0x4002
          if ((HAL_GetTick() - tickstart) > RCC_LSE_TIMEOUT_VALUE)
 8002fbc:	f241 3888 	movw	r8, #5000	@ 0x1388
        while (__HAL_RCC_GET_FLAG(RCC_FLAG_LSERDY) == RESET)
 8002fc0:	6a3b      	ldr	r3, [r7, #32]
 8002fc2:	f013 0f02 	tst.w	r3, #2
 8002fc6:	d1ba      	bne.n	8002f3e <HAL_RCCEx_PeriphCLKConfig+0x8e>
          if ((HAL_GetTick() - tickstart) > RCC_LSE_TIMEOUT_VALUE)
 8002fc8:	f7ff f86b 	bl	80020a2 <HAL_GetTick>
 8002fcc:	1b80      	subs	r0, r0, r6
 8002fce:	4540      	cmp	r0, r8
 8002fd0:	d9f6      	bls.n	8002fc0 <HAL_RCCEx_PeriphCLKConfig+0x110>
            return HAL_TIMEOUT;
 8002fd2:	2003      	movs	r0, #3
 8002fd4:	e009      	b.n	8002fea <HAL_RCCEx_PeriphCLKConfig+0x13a>
      __HAL_RCC_PWR_CLK_DISABLE();
 8002fd6:	f44f 5380 	mov.w	r3, #4096	@ 0x1000
 8002fda:	f2c4 0302 	movt	r3, #16386	@ 0x4002
 8002fde:	69da      	ldr	r2, [r3, #28]
 8002fe0:	f022 5280 	bic.w	r2, r2, #268435456	@ 0x10000000
 8002fe4:	61da      	str	r2, [r3, #28]
 8002fe6:	e7b6      	b.n	8002f56 <HAL_RCCEx_PeriphCLKConfig+0xa6>
  return HAL_OK;
 8002fe8:	2000      	movs	r0, #0
}
 8002fea:	b002      	add	sp, #8
 8002fec:	e8bd 81f0 	ldmia.w	sp!, {r4, r5, r6, r7, r8, pc}

08002ff0 <HAL_TIM_Base_Start>:

  /* Check the parameters */
  assert_param(IS_TIM_INSTANCE(htim->Instance));

  /* Check the TIM state */
  if (htim->State != HAL_TIM_STATE_READY)
 8002ff0:	f890 303d 	ldrb.w	r3, [r0, #61]	@ 0x3d
 8002ff4:	b2db      	uxtb	r3, r3
 8002ff6:	2b01      	cmp	r3, #1
 8002ff8:	d12f      	bne.n	800305a <HAL_TIM_Base_Start+0x6a>
  {
    return HAL_ERROR;
  }

  /* Set the TIM state */
  htim->State = HAL_TIM_STATE_BUSY;
 8002ffa:	2302      	movs	r3, #2
 8002ffc:	f880 303d 	strb.w	r3, [r0, #61]	@ 0x3d

  /* Enable the Peripheral, except in trigger mode where enable is automatically done with trigger */
  if (IS_TIM_SLAVE_INSTANCE(htim->Instance))
 8003000:	6803      	ldr	r3, [r0, #0]
 8003002:	f44f 5230 	mov.w	r2, #11264	@ 0x2c00
 8003006:	f2c4 0201 	movt	r2, #16385	@ 0x4001
 800300a:	4293      	cmp	r3, r2
 800300c:	d01a      	beq.n	8003044 <HAL_TIM_Base_Start+0x54>
 800300e:	f1b3 4f80 	cmp.w	r3, #1073741824	@ 0x40000000
 8003012:	d017      	beq.n	8003044 <HAL_TIM_Base_Start+0x54>
 8003014:	f44f 6280 	mov.w	r2, #1024	@ 0x400
 8003018:	f2c4 0200 	movt	r2, #16384	@ 0x4000
 800301c:	4293      	cmp	r3, r2
 800301e:	d011      	beq.n	8003044 <HAL_TIM_Base_Start+0x54>
 8003020:	f44f 6200 	mov.w	r2, #2048	@ 0x800
 8003024:	f2c4 0200 	movt	r2, #16384	@ 0x4000
 8003028:	4293      	cmp	r3, r2
 800302a:	d00b      	beq.n	8003044 <HAL_TIM_Base_Start+0x54>
 800302c:	f44f 4280 	mov.w	r2, #16384	@ 0x4000
 8003030:	f2c4 0201 	movt	r2, #16385	@ 0x4001
 8003034:	4293      	cmp	r3, r2
 8003036:	d005      	beq.n	8003044 <HAL_TIM_Base_Start+0x54>
      __HAL_TIM_ENABLE(htim);
    }
  }
  else
  {
    __HAL_TIM_ENABLE(htim);
 8003038:	681a      	ldr	r2, [r3, #0]
 800303a:	f042 0201 	orr.w	r2, r2, #1
 800303e:	601a      	str	r2, [r3, #0]
  }

  /* Return function status */
  return HAL_OK;
 8003040:	2000      	movs	r0, #0
 8003042:	4770      	bx	lr
    tmpsmcr = htim->Instance->SMCR & TIM_SMCR_SMS;
 8003044:	689a      	ldr	r2, [r3, #8]
 8003046:	f002 0207 	and.w	r2, r2, #7
    if (!IS_TIM_SLAVEMODE_TRIGGER_ENABLED(tmpsmcr))
 800304a:	2a06      	cmp	r2, #6
 800304c:	d007      	beq.n	800305e <HAL_TIM_Base_Start+0x6e>
      __HAL_TIM_ENABLE(htim);
 800304e:	681a      	ldr	r2, [r3, #0]
 8003050:	f042 0201 	orr.w	r2, r2, #1
 8003054:	601a      	str	r2, [r3, #0]
  return HAL_OK;
 8003056:	2000      	movs	r0, #0
 8003058:	4770      	bx	lr
    return HAL_ERROR;
 800305a:	2001      	movs	r0, #1
 800305c:	4770      	bx	lr
  return HAL_OK;
 800305e:	2000      	movs	r0, #0
}
 8003060:	4770      	bx	lr

08003062 <HAL_TIM_Base_Start_IT>:

  /* Check the parameters */
  assert_param(IS_TIM_INSTANCE(htim->Instance));

  /* Check the TIM state */
  if (htim->State != HAL_TIM_STATE_READY)
 8003062:	f890 303d 	ldrb.w	r3, [r0, #61]	@ 0x3d
 8003066:	b2db      	uxtb	r3, r3
 8003068:	2b01      	cmp	r3, #1
 800306a:	d134      	bne.n	80030d6 <HAL_TIM_Base_Start_IT+0x74>
  {
    return HAL_ERROR;
  }

  /* Set the TIM state */
  htim->State = HAL_TIM_STATE_BUSY;
 800306c:	2302      	movs	r3, #2
 800306e:	f880 303d 	strb.w	r3, [r0, #61]	@ 0x3d

  /* Enable the TIM Update interrupt */
  __HAL_TIM_ENABLE_IT(htim, TIM_IT_UPDATE);
 8003072:	6802      	ldr	r2, [r0, #0]
 8003074:	68d3      	ldr	r3, [r2, #12]
 8003076:	f043 0301 	orr.w	r3, r3, #1
 800307a:	60d3      	str	r3, [r2, #12]

  /* Enable the Peripheral, except in trigger mode where enable is automatically done with trigger */
  if (IS_TIM_SLAVE_INSTANCE(htim->Instance))
 800307c:	6803      	ldr	r3, [r0, #0]
 800307e:	f44f 5230 	mov.w	r2, #11264	@ 0x2c00
 8003082:	f2c4 0201 	movt	r2, #16385	@ 0x4001
 8003086:	4293      	cmp	r3, r2
 8003088:	d01a      	beq.n	80030c0 <HAL_TIM_Base_Start_IT+0x5e>
 800308a:	f1b3 4f80 	cmp.w	r3, #1073741824	@ 0x40000000
 800308e:	d017      	beq.n	80030c0 <HAL_TIM_Base_Start_IT+0x5e>
 8003090:	f44f 6280 	mov.w	r2, #1024	@ 0x400
 8003094:	f2c4 0200 	movt	r2, #16384	@ 0x4000
 8003098:	4293      	cmp	r3, r2
 800309a:	d011      	beq.n	80030c0 <HAL_TIM_Base_Start_IT+0x5e>
 800309c:	f44f 6200 	mov.w	r2, #2048	@ 0x800
 80030a0:	f2c4 0200 	movt	r2, #16384	@ 0x4000
 80030a4:	4293      	cmp	r3, r2
 80030a6:	d00b      	beq.n	80030c0 <HAL_TIM_Base_Start_IT+0x5e>
 80030a8:	f44f 4280 	mov.w	r2, #16384	@ 0x4000
 80030ac:	f2c4 0201 	movt	r2, #16385	@ 0x4001
 80030b0:	4293      	cmp	r3, r2
 80030b2:	d005      	beq.n	80030c0 <HAL_TIM_Base_Start_IT+0x5e>
      __HAL_TIM_ENABLE(htim);
    }
  }
  else
  {
    __HAL_TIM_ENABLE(htim);
 80030b4:	681a      	ldr	r2, [r3, #0]
 80030b6:	f042 0201 	orr.w	r2, r2, #1
 80030ba:	601a      	str	r2, [r3, #0]
  }

  /* Return function status */
  return HAL_OK;
 80030bc:	2000      	movs	r0, #0
 80030be:	4770      	bx	lr
    tmpsmcr = htim->Instance->SMCR & TIM_SMCR_SMS;
 80030c0:	689a      	ldr	r2, [r3, #8]
 80030c2:	f002 0207 	and.w	r2, r2, #7
    if (!IS_TIM_SLAVEMODE_TRIGGER_ENABLED(tmpsmcr))
 80030c6:	2a06      	cmp	r2, #6
 80030c8:	d007      	beq.n	80030da <HAL_TIM_Base_Start_IT+0x78>
      __HAL_TIM_ENABLE(htim);
 80030ca:	681a      	ldr	r2, [r3, #0]
 80030cc:	f042 0201 	orr.w	r2, r2, #1
 80030d0:	601a      	str	r2, [r3, #0]
  return HAL_OK;
 80030d2:	2000      	movs	r0, #0
 80030d4:	4770      	bx	lr
    return HAL_ERROR;
 80030d6:	2001      	movs	r0, #1
 80030d8:	4770      	bx	lr
  return HAL_OK;
 80030da:	2000      	movs	r0, #0
}
 80030dc:	4770      	bx	lr

080030de <HAL_TIM_PeriodElapsedCallback>:
  UNUSED(htim);

  /* NOTE : This function should not be modified, when the callback is needed,
            the HAL_TIM_PeriodElapsedCallback could be implemented in the user file
   */
}
 80030de:	4770      	bx	lr

080030e0 <HAL_TIM_OC_DelayElapsedCallback>:
  UNUSED(htim);

  /* NOTE : This function should not be modified, when the callback is needed,
            the HAL_TIM_OC_DelayElapsedCallback could be implemented in the user file
   */
}
 80030e0:	4770      	bx	lr

080030e2 <HAL_TIM_IC_CaptureCallback>:
  UNUSED(htim);

  /* NOTE : This function should not be modified, when the callback is needed,
            the HAL_TIM_IC_CaptureCallback could be implemented in the user file
   */
}
 80030e2:	4770      	bx	lr

080030e4 <HAL_TIM_PWM_PulseFinishedCallback>:
  UNUSED(htim);

  /* NOTE : This function should not be modified, when the callback is needed,
            the HAL_TIM_PWM_PulseFinishedCallback could be implemented in the user file
   */
}
 80030e4:	4770      	bx	lr

080030e6 <HAL_TIM_TriggerCallback>:
  UNUSED(htim);

  /* NOTE : This function should not be modified, when the callback is needed,
            the HAL_TIM_TriggerCallback could be implemented in the user file
   */
}
 80030e6:	4770      	bx	lr

080030e8 <HAL_TIM_IRQHandler>:
{
 80030e8:	b570      	push	{r4, r5, r6, lr}
 80030ea:	4604      	mov	r4, r0
  uint32_t itsource = htim->Instance->DIER;
 80030ec:	6803      	ldr	r3, [r0, #0]
 80030ee:	68de      	ldr	r6, [r3, #12]
  uint32_t itflag   = htim->Instance->SR;
 80030f0:	691d      	ldr	r5, [r3, #16]
  if ((itflag & (TIM_FLAG_CC1)) == (TIM_FLAG_CC1))
 80030f2:	f015 0f02 	tst.w	r5, #2
 80030f6:	d010      	beq.n	800311a <HAL_TIM_IRQHandler+0x32>
    if ((itsource & (TIM_IT_CC1)) == (TIM_IT_CC1))
 80030f8:	f016 0f02 	tst.w	r6, #2
 80030fc:	d00d      	beq.n	800311a <HAL_TIM_IRQHandler+0x32>
        __HAL_TIM_CLEAR_FLAG(htim, TIM_FLAG_CC1);
 80030fe:	f06f 0202 	mvn.w	r2, #2
 8003102:	611a      	str	r2, [r3, #16]
        htim->Channel = HAL_TIM_ACTIVE_CHANNEL_1;
 8003104:	2301      	movs	r3, #1
 8003106:	7703      	strb	r3, [r0, #28]
        if ((htim->Instance->CCMR1 & TIM_CCMR1_CC1S) != 0x00U)
 8003108:	6803      	ldr	r3, [r0, #0]
 800310a:	699b      	ldr	r3, [r3, #24]
 800310c:	f013 0f03 	tst.w	r3, #3
 8003110:	d05e      	beq.n	80031d0 <HAL_TIM_IRQHandler+0xe8>
          HAL_TIM_IC_CaptureCallback(htim);
 8003112:	f7ff ffe6 	bl	80030e2 <HAL_TIM_IC_CaptureCallback>
        htim->Channel = HAL_TIM_ACTIVE_CHANNEL_CLEARED;
 8003116:	2300      	movs	r3, #0
 8003118:	7723      	strb	r3, [r4, #28]
  if ((itflag & (TIM_FLAG_CC2)) == (TIM_FLAG_CC2))
 800311a:	f015 0f04 	tst.w	r5, #4
 800311e:	d012      	beq.n	8003146 <HAL_TIM_IRQHandler+0x5e>
    if ((itsource & (TIM_IT_CC2)) == (TIM_IT_CC2))
 8003120:	f016 0f04 	tst.w	r6, #4
 8003124:	d00f      	beq.n	8003146 <HAL_TIM_IRQHandler+0x5e>
      __HAL_TIM_CLEAR_FLAG(htim, TIM_FLAG_CC2);
 8003126:	6823      	ldr	r3, [r4, #0]
 8003128:	f06f 0204 	mvn.w	r2, #4
 800312c:	611a      	str	r2, [r3, #16]
      htim->Channel = HAL_TIM_ACTIVE_CHANNEL_2;
 800312e:	2302      	movs	r3, #2
 8003130:	7723      	strb	r3, [r4, #28]
      if ((htim->Instance->CCMR1 & TIM_CCMR1_CC2S) != 0x00U)
 8003132:	6823      	ldr	r3, [r4, #0]
 8003134:	699b      	ldr	r3, [r3, #24]
 8003136:	f413 7f40 	tst.w	r3, #768	@ 0x300
 800313a:	d04f      	beq.n	80031dc <HAL_TIM_IRQHandler+0xf4>
        HAL_TIM_IC_CaptureCallback(htim);
 800313c:	4620      	mov	r0, r4
 800313e:	f7ff ffd0 	bl	80030e2 <HAL_TIM_IC_CaptureCallback>
      htim->Channel = HAL_TIM_ACTIVE_CHANNEL_CLEARED;
 8003142:	2300      	movs	r3, #0
 8003144:	7723      	strb	r3, [r4, #28]
  if ((itflag & (TIM_FLAG_CC3)) == (TIM_FLAG_CC3))
 8003146:	f015 0f08 	tst.w	r5, #8
 800314a:	d012      	beq.n	8003172 <HAL_TIM_IRQHandler+0x8a>
    if ((itsource & (TIM_IT_CC3)) == (TIM_IT_CC3))
 800314c:	f016 0f08 	tst.w	r6, #8
 8003150:	d00f      	beq.n	8003172 <HAL_TIM_IRQHandler+0x8a>
      __HAL_TIM_CLEAR_FLAG(htim, TIM_FLAG_CC3);
 8003152:	6823      	ldr	r3, [r4, #0]
 8003154:	f06f 0208 	mvn.w	r2, #8
 8003158:	611a      	str	r2, [r3, #16]
      htim->Channel = HAL_TIM_ACTIVE_CHANNEL_3;
 800315a:	2304      	movs	r3, #4
 800315c:	7723      	strb	r3, [r4, #28]
      if ((htim->Instance->CCMR2 & TIM_CCMR2_CC3S) != 0x00U)
 800315e:	6823      	ldr	r3, [r4, #0]
 8003160:	69db      	ldr	r3, [r3, #28]
 8003162:	f013 0f03 	tst.w	r3, #3
 8003166:	d040      	beq.n	80031ea <HAL_TIM_IRQHandler+0x102>
        HAL_TIM_IC_CaptureCallback(htim);
 8003168:	4620      	mov	r0, r4
 800316a:	f7ff ffba 	bl	80030e2 <HAL_TIM_IC_CaptureCallback>
      htim->Channel = HAL_TIM_ACTIVE_CHANNEL_CLEARED;
 800316e:	2300      	movs	r3, #0
 8003170:	7723      	strb	r3, [r4, #28]
  if ((itflag & (TIM_FLAG_CC4)) == (TIM_FLAG_CC4))
 8003172:	f015 0f10 	tst.w	r5, #16
 8003176:	d012      	beq.n	800319e <HAL_TIM_IRQHandler+0xb6>
    if ((itsource & (TIM_IT_CC4)) == (TIM_IT_CC4))
 8003178:	f016 0f10 	tst.w	r6, #16
 800317c:	d00f      	beq.n	800319e <HAL_TIM_IRQHandler+0xb6>
      __HAL_TIM_CLEAR_FLAG(htim, TIM_FLAG_CC4);
 800317e:	6823      	ldr	r3, [r4, #0]
 8003180:	f06f 0210 	mvn.w	r2, #16
 8003184:	611a      	str	r2, [r3, #16]
      htim->Channel = HAL_TIM_ACTIVE_CHANNEL_4;
 8003186:	2308      	movs	r3, #8
 8003188:	7723      	strb	r3, [r4, #28]
      if ((htim->Instance->CCMR2 & TIM_CCMR2_CC4S) != 0x00U)
 800318a:	6823      	ldr	r3, [r4, #0]
 800318c:	69db      	ldr	r3, [r3, #28]
 800318e:	f413 7f40 	tst.w	r3, #768	@ 0x300
 8003192:	d031      	beq.n	80031f8 <HAL_TIM_IRQHandler+0x110>
        HAL_TIM_IC_CaptureCallback(htim);
 8003194:	4620      	mov	r0, r4
 8003196:	f7ff ffa4 	bl	80030e2 <HAL_TIM_IC_CaptureCallback>
      htim->Channel = HAL_TIM_ACTIVE_CHANNEL_CLEARED;
 800319a:	2300      	movs	r3, #0
 800319c:	7723      	strb	r3, [r4, #28]
  if ((itflag & (TIM_FLAG_UPDATE)) == (TIM_FLAG_UPDATE))
 800319e:	f015 0f01 	tst.w	r5, #1
 80031a2:	d002      	beq.n	80031aa <HAL_TIM_IRQHandler+0xc2>
    if ((itsource & (TIM_IT_UPDATE)) == (TIM_IT_UPDATE))
 80031a4:	f016 0f01 	tst.w	r6, #1
 80031a8:	d12d      	bne.n	8003206 <HAL_TIM_IRQHandler+0x11e>
  if ((itflag & (TIM_FLAG_BREAK)) == (TIM_FLAG_BREAK))
 80031aa:	f015 0f80 	tst.w	r5, #128	@ 0x80
 80031ae:	d002      	beq.n	80031b6 <HAL_TIM_IRQHandler+0xce>
    if ((itsource & (TIM_IT_BREAK)) == (TIM_IT_BREAK))
 80031b0:	f016 0f80 	tst.w	r6, #128	@ 0x80
 80031b4:	d12f      	bne.n	8003216 <HAL_TIM_IRQHandler+0x12e>
  if ((itflag & (TIM_FLAG_TRIGGER)) == (TIM_FLAG_TRIGGER))
 80031b6:	f015 0f40 	tst.w	r5, #64	@ 0x40
 80031ba:	d002      	beq.n	80031c2 <HAL_TIM_IRQHandler+0xda>
    if ((itsource & (TIM_IT_TRIGGER)) == (TIM_IT_TRIGGER))
 80031bc:	f016 0f40 	tst.w	r6, #64	@ 0x40
 80031c0:	d131      	bne.n	8003226 <HAL_TIM_IRQHandler+0x13e>
  if ((itflag & (TIM_FLAG_COM)) == (TIM_FLAG_COM))
 80031c2:	f015 0f20 	tst.w	r5, #32
 80031c6:	d002      	beq.n	80031ce <HAL_TIM_IRQHandler+0xe6>
    if ((itsource & (TIM_IT_COM)) == (TIM_IT_COM))
 80031c8:	f016 0f20 	tst.w	r6, #32
 80031cc:	d133      	bne.n	8003236 <HAL_TIM_IRQHandler+0x14e>
}
 80031ce:	bd70      	pop	{r4, r5, r6, pc}
          HAL_TIM_OC_DelayElapsedCallback(htim);
 80031d0:	f7ff ff86 	bl	80030e0 <HAL_TIM_OC_DelayElapsedCallback>
          HAL_TIM_PWM_PulseFinishedCallback(htim);
 80031d4:	4620      	mov	r0, r4
 80031d6:	f7ff ff85 	bl	80030e4 <HAL_TIM_PWM_PulseFinishedCallback>
 80031da:	e79c      	b.n	8003116 <HAL_TIM_IRQHandler+0x2e>
        HAL_TIM_OC_DelayElapsedCallback(htim);
 80031dc:	4620      	mov	r0, r4
 80031de:	f7ff ff7f 	bl	80030e0 <HAL_TIM_OC_DelayElapsedCallback>
        HAL_TIM_PWM_PulseFinishedCallback(htim);
 80031e2:	4620      	mov	r0, r4
 80031e4:	f7ff ff7e 	bl	80030e4 <HAL_TIM_PWM_PulseFinishedCallback>
 80031e8:	e7ab      	b.n	8003142 <HAL_TIM_IRQHandler+0x5a>
        HAL_TIM_OC_DelayElapsedCallback(htim);
 80031ea:	4620      	mov	r0, r4
 80031ec:	f7ff ff78 	bl	80030e0 <HAL_TIM_OC_DelayElapsedCallback>
        HAL_TIM_PWM_PulseFinishedCallback(htim);
 80031f0:	4620      	mov	r0, r4
 80031f2:	f7ff ff77 	bl	80030e4 <HAL_TIM_PWM_PulseFinishedCallback>
 80031f6:	e7ba      	b.n	800316e <HAL_TIM_IRQHandler+0x86>
        HAL_TIM_OC_DelayElapsedCallback(htim);
 80031f8:	4620      	mov	r0, r4
 80031fa:	f7ff ff71 	bl	80030e0 <HAL_TIM_OC_DelayElapsedCallback>
        HAL_TIM_PWM_PulseFinishedCallback(htim);
 80031fe:	4620      	mov	r0, r4
 8003200:	f7ff ff70 	bl	80030e4 <HAL_TIM_PWM_PulseFinishedCallback>
 8003204:	e7c9      	b.n	800319a <HAL_TIM_IRQHandler+0xb2>
      __HAL_TIM_CLEAR_FLAG(htim, TIM_FLAG_UPDATE);
 8003206:	6823      	ldr	r3, [r4, #0]
 8003208:	f06f 0201 	mvn.w	r2, #1
 800320c:	611a      	str	r2, [r3, #16]
      HAL_TIM_PeriodElapsedCallback(htim);
 800320e:	4620      	mov	r0, r4
 8003210:	f7ff ff65 	bl	80030de <HAL_TIM_PeriodElapsedCallback>
 8003214:	e7c9      	b.n	80031aa <HAL_TIM_IRQHandler+0xc2>
      __HAL_TIM_CLEAR_FLAG(htim, TIM_FLAG_BREAK);
 8003216:	6823      	ldr	r3, [r4, #0]
 8003218:	f06f 0280 	mvn.w	r2, #128	@ 0x80
 800321c:	611a      	str	r2, [r3, #16]
      HAL_TIMEx_BreakCallback(htim);
 800321e:	4620      	mov	r0, r4
 8003220:	f000 fa0c 	bl	800363c <HAL_TIMEx_BreakCallback>
 8003224:	e7c7      	b.n	80031b6 <HAL_TIM_IRQHandler+0xce>
      __HAL_TIM_CLEAR_FLAG(htim, TIM_FLAG_TRIGGER);
 8003226:	6823      	ldr	r3, [r4, #0]
 8003228:	f06f 0240 	mvn.w	r2, #64	@ 0x40
 800322c:	611a      	str	r2, [r3, #16]
      HAL_TIM_TriggerCallback(htim);
 800322e:	4620      	mov	r0, r4
 8003230:	f7ff ff59 	bl	80030e6 <HAL_TIM_TriggerCallback>
 8003234:	e7c5      	b.n	80031c2 <HAL_TIM_IRQHandler+0xda>
      __HAL_TIM_CLEAR_FLAG(htim, TIM_FLAG_COM);
 8003236:	6823      	ldr	r3, [r4, #0]
 8003238:	f06f 0220 	mvn.w	r2, #32
 800323c:	611a      	str	r2, [r3, #16]
      HAL_TIMEx_CommutCallback(htim);
 800323e:	4620      	mov	r0, r4
 8003240:	f000 f9fb 	bl	800363a <HAL_TIMEx_CommutCallback>
}
 8003244:	e7c3      	b.n	80031ce <HAL_TIM_IRQHandler+0xe6>

08003246 <TIM_Base_SetConfig>:
  * @retval None
  */
void TIM_Base_SetConfig(TIM_TypeDef *TIMx, const TIM_Base_InitTypeDef *Structure)
{
  uint32_t tmpcr1;
  tmpcr1 = TIMx->CR1;
 8003246:	6803      	ldr	r3, [r0, #0]

  /* Set TIM Time Base Unit parameters ---------------------------------------*/
  if (IS_TIM_COUNTER_MODE_SELECT_INSTANCE(TIMx))
 8003248:	f44f 5230 	mov.w	r2, #11264	@ 0x2c00
 800324c:	f2c4 0201 	movt	r2, #16385	@ 0x4001
 8003250:	4290      	cmp	r0, r2
 8003252:	f000 8095 	beq.w	8003380 <TIM_Base_SetConfig+0x13a>
 8003256:	f1b0 4f80 	cmp.w	r0, #1073741824	@ 0x40000000
 800325a:	f000 80af 	beq.w	80033bc <TIM_Base_SetConfig+0x176>
 800325e:	f44f 6280 	mov.w	r2, #1024	@ 0x400
 8003262:	f2c4 0200 	movt	r2, #16384	@ 0x4000
 8003266:	4290      	cmp	r0, r2
 8003268:	f000 8085 	beq.w	8003376 <TIM_Base_SetConfig+0x130>
 800326c:	f44f 6200 	mov.w	r2, #2048	@ 0x800
 8003270:	f2c4 0200 	movt	r2, #16384	@ 0x4000
 8003274:	4290      	cmp	r0, r2
 8003276:	d01b      	beq.n	80032b0 <TIM_Base_SetConfig+0x6a>
    /* Select the Counter Mode */
    tmpcr1 &= ~(TIM_CR1_DIR | TIM_CR1_CMS);
    tmpcr1 |= Structure->CounterMode;
  }

  if (IS_TIM_CLOCK_DIVISION_INSTANCE(TIMx))
 8003278:	f44f 4280 	mov.w	r2, #16384	@ 0x4000
 800327c:	f2c4 0201 	movt	r2, #16385	@ 0x4001
 8003280:	4290      	cmp	r0, r2
 8003282:	d06a      	beq.n	800335a <TIM_Base_SetConfig+0x114>
 8003284:	f44f 4288 	mov.w	r2, #17408	@ 0x4400
 8003288:	f2c4 0201 	movt	r2, #16385	@ 0x4001
 800328c:	4290      	cmp	r0, r2
 800328e:	d048      	beq.n	8003322 <TIM_Base_SetConfig+0xdc>
 8003290:	f44f 4290 	mov.w	r2, #18432	@ 0x4800
 8003294:	f2c4 0201 	movt	r2, #16385	@ 0x4001
 8003298:	4290      	cmp	r0, r2
 800329a:	d050      	beq.n	800333e <TIM_Base_SetConfig+0xf8>
    tmpcr1 &= ~TIM_CR1_CKD;
    tmpcr1 |= (uint32_t)Structure->ClockDivision;
  }

  /* Set the auto-reload preload */
  MODIFY_REG(tmpcr1, TIM_CR1_ARPE, Structure->AutoReloadPreload);
 800329c:	f023 0380 	bic.w	r3, r3, #128	@ 0x80
 80032a0:	694a      	ldr	r2, [r1, #20]
 80032a2:	4313      	orrs	r3, r2

  TIMx->CR1 = tmpcr1;
 80032a4:	6003      	str	r3, [r0, #0]

  /* Set the Autoreload value */
  TIMx->ARR = (uint32_t)Structure->Period ;
 80032a6:	688b      	ldr	r3, [r1, #8]
 80032a8:	62c3      	str	r3, [r0, #44]	@ 0x2c

  /* Set the Prescaler value */
  TIMx->PSC = Structure->Prescaler;
 80032aa:	680b      	ldr	r3, [r1, #0]
 80032ac:	6283      	str	r3, [r0, #40]	@ 0x28

  if (IS_TIM_REPETITION_COUNTER_INSTANCE(TIMx))
 80032ae:	e07a      	b.n	80033a6 <TIM_Base_SetConfig+0x160>
    tmpcr1 &= ~(TIM_CR1_DIR | TIM_CR1_CMS);
 80032b0:	f023 0370 	bic.w	r3, r3, #112	@ 0x70
    tmpcr1 |= Structure->CounterMode;
 80032b4:	684a      	ldr	r2, [r1, #4]
 80032b6:	4313      	orrs	r3, r2
  if (IS_TIM_CLOCK_DIVISION_INSTANCE(TIMx))
 80032b8:	f44f 5230 	mov.w	r2, #11264	@ 0x2c00
 80032bc:	f2c4 0201 	movt	r2, #16385	@ 0x4001
 80032c0:	4290      	cmp	r0, r2
 80032c2:	d061      	beq.n	8003388 <TIM_Base_SetConfig+0x142>
 80032c4:	f1b0 4f80 	cmp.w	r0, #1073741824	@ 0x40000000
 80032c8:	d07c      	beq.n	80033c4 <TIM_Base_SetConfig+0x17e>
 80032ca:	f44f 6280 	mov.w	r2, #1024	@ 0x400
 80032ce:	f2c4 0200 	movt	r2, #16384	@ 0x4000
 80032d2:	4290      	cmp	r0, r2
 80032d4:	d076      	beq.n	80033c4 <TIM_Base_SetConfig+0x17e>
    tmpcr1 &= ~TIM_CR1_CKD;
 80032d6:	f423 7340 	bic.w	r3, r3, #768	@ 0x300
    tmpcr1 |= (uint32_t)Structure->ClockDivision;
 80032da:	68ca      	ldr	r2, [r1, #12]
 80032dc:	4313      	orrs	r3, r2
  MODIFY_REG(tmpcr1, TIM_CR1_ARPE, Structure->AutoReloadPreload);
 80032de:	f023 0380 	bic.w	r3, r3, #128	@ 0x80
 80032e2:	694a      	ldr	r2, [r1, #20]
 80032e4:	4313      	orrs	r3, r2
  TIMx->CR1 = tmpcr1;
 80032e6:	6003      	str	r3, [r0, #0]
  TIMx->ARR = (uint32_t)Structure->Period ;
 80032e8:	688b      	ldr	r3, [r1, #8]
 80032ea:	62c3      	str	r3, [r0, #44]	@ 0x2c
  TIMx->PSC = Structure->Prescaler;
 80032ec:	680b      	ldr	r3, [r1, #0]
 80032ee:	6283      	str	r3, [r0, #40]	@ 0x28
  if (IS_TIM_REPETITION_COUNTER_INSTANCE(TIMx))
 80032f0:	f44f 5330 	mov.w	r3, #11264	@ 0x2c00
 80032f4:	f2c4 0301 	movt	r3, #16385	@ 0x4001
 80032f8:	4298      	cmp	r0, r3
 80032fa:	d052      	beq.n	80033a2 <TIM_Base_SetConfig+0x15c>
 80032fc:	f44f 4380 	mov.w	r3, #16384	@ 0x4000
 8003300:	f2c4 0301 	movt	r3, #16385	@ 0x4001
 8003304:	4298      	cmp	r0, r3
 8003306:	d04c      	beq.n	80033a2 <TIM_Base_SetConfig+0x15c>
 8003308:	f44f 4388 	mov.w	r3, #17408	@ 0x4400
 800330c:	f2c4 0301 	movt	r3, #16385	@ 0x4001
 8003310:	4298      	cmp	r0, r3
 8003312:	d046      	beq.n	80033a2 <TIM_Base_SetConfig+0x15c>
 8003314:	f44f 4390 	mov.w	r3, #18432	@ 0x4800
 8003318:	f2c4 0301 	movt	r3, #16385	@ 0x4001
 800331c:	4298      	cmp	r0, r3
 800331e:	d040      	beq.n	80033a2 <TIM_Base_SetConfig+0x15c>
 8003320:	e041      	b.n	80033a6 <TIM_Base_SetConfig+0x160>
    tmpcr1 &= ~TIM_CR1_CKD;
 8003322:	f423 7340 	bic.w	r3, r3, #768	@ 0x300
    tmpcr1 |= (uint32_t)Structure->ClockDivision;
 8003326:	68ca      	ldr	r2, [r1, #12]
 8003328:	4313      	orrs	r3, r2
  MODIFY_REG(tmpcr1, TIM_CR1_ARPE, Structure->AutoReloadPreload);
 800332a:	f023 0380 	bic.w	r3, r3, #128	@ 0x80
 800332e:	694a      	ldr	r2, [r1, #20]
 8003330:	4313      	orrs	r3, r2
  TIMx->CR1 = tmpcr1;
 8003332:	6003      	str	r3, [r0, #0]
  TIMx->ARR = (uint32_t)Structure->Period ;
 8003334:	688b      	ldr	r3, [r1, #8]
 8003336:	62c3      	str	r3, [r0, #44]	@ 0x2c
  TIMx->PSC = Structure->Prescaler;
 8003338:	680b      	ldr	r3, [r1, #0]
 800333a:	6283      	str	r3, [r0, #40]	@ 0x28
  if (IS_TIM_REPETITION_COUNTER_INSTANCE(TIMx))
 800333c:	e031      	b.n	80033a2 <TIM_Base_SetConfig+0x15c>
    tmpcr1 &= ~TIM_CR1_CKD;
 800333e:	f423 7340 	bic.w	r3, r3, #768	@ 0x300
    tmpcr1 |= (uint32_t)Structure->ClockDivision;
 8003342:	68ca      	ldr	r2, [r1, #12]
 8003344:	4313      	orrs	r3, r2
  MODIFY_REG(tmpcr1, TIM_CR1_ARPE, Structure->AutoReloadPreload);
 8003346:	f023 0380 	bic.w	r3, r3, #128	@ 0x80
 800334a:	694a      	ldr	r2, [r1, #20]
 800334c:	4313      	orrs	r3, r2
  TIMx->CR1 = tmpcr1;
 800334e:	6003      	str	r3, [r0, #0]
  TIMx->ARR = (uint32_t)Structure->Period ;
 8003350:	688b      	ldr	r3, [r1, #8]
 8003352:	62c3      	str	r3, [r0, #44]	@ 0x2c
  TIMx->PSC = Structure->Prescaler;
 8003354:	680b      	ldr	r3, [r1, #0]
 8003356:	6283      	str	r3, [r0, #40]	@ 0x28
  if (IS_TIM_REPETITION_COUNTER_INSTANCE(TIMx))
 8003358:	e023      	b.n	80033a2 <TIM_Base_SetConfig+0x15c>
    tmpcr1 &= ~TIM_CR1_CKD;
 800335a:	f423 7340 	bic.w	r3, r3, #768	@ 0x300
    tmpcr1 |= (uint32_t)Structure->ClockDivision;
 800335e:	68ca      	ldr	r2, [r1, #12]
 8003360:	4313      	orrs	r3, r2
  MODIFY_REG(tmpcr1, TIM_CR1_ARPE, Structure->AutoReloadPreload);
 8003362:	f023 0380 	bic.w	r3, r3, #128	@ 0x80
 8003366:	694a      	ldr	r2, [r1, #20]
 8003368:	4313      	orrs	r3, r2
  TIMx->CR1 = tmpcr1;
 800336a:	6003      	str	r3, [r0, #0]
  TIMx->ARR = (uint32_t)Structure->Period ;
 800336c:	688b      	ldr	r3, [r1, #8]
 800336e:	62c3      	str	r3, [r0, #44]	@ 0x2c
  TIMx->PSC = Structure->Prescaler;
 8003370:	680b      	ldr	r3, [r1, #0]
 8003372:	6283      	str	r3, [r0, #40]	@ 0x28
  if (IS_TIM_REPETITION_COUNTER_INSTANCE(TIMx))
 8003374:	e015      	b.n	80033a2 <TIM_Base_SetConfig+0x15c>
    tmpcr1 &= ~(TIM_CR1_DIR | TIM_CR1_CMS);
 8003376:	f023 0370 	bic.w	r3, r3, #112	@ 0x70
    tmpcr1 |= Structure->CounterMode;
 800337a:	684a      	ldr	r2, [r1, #4]
 800337c:	4313      	orrs	r3, r2
  if (IS_TIM_CLOCK_DIVISION_INSTANCE(TIMx))
 800337e:	e021      	b.n	80033c4 <TIM_Base_SetConfig+0x17e>
    tmpcr1 &= ~(TIM_CR1_DIR | TIM_CR1_CMS);
 8003380:	f023 0370 	bic.w	r3, r3, #112	@ 0x70
    tmpcr1 |= Structure->CounterMode;
 8003384:	684a      	ldr	r2, [r1, #4]
 8003386:	4313      	orrs	r3, r2
    tmpcr1 &= ~TIM_CR1_CKD;
 8003388:	f423 7340 	bic.w	r3, r3, #768	@ 0x300
    tmpcr1 |= (uint32_t)Structure->ClockDivision;
 800338c:	68ca      	ldr	r2, [r1, #12]
 800338e:	4313      	orrs	r3, r2
  MODIFY_REG(tmpcr1, TIM_CR1_ARPE, Structure->AutoReloadPreload);
 8003390:	f023 0380 	bic.w	r3, r3, #128	@ 0x80
 8003394:	694a      	ldr	r2, [r1, #20]
 8003396:	4313      	orrs	r3, r2
  TIMx->CR1 = tmpcr1;
 8003398:	6003      	str	r3, [r0, #0]
  TIMx->ARR = (uint32_t)Structure->Period ;
 800339a:	688b      	ldr	r3, [r1, #8]
 800339c:	62c3      	str	r3, [r0, #44]	@ 0x2c
  TIMx->PSC = Structure->Prescaler;
 800339e:	680b      	ldr	r3, [r1, #0]
 80033a0:	6283      	str	r3, [r0, #40]	@ 0x28
  {
    /* Set the Repetition Counter value */
    TIMx->RCR = Structure->RepetitionCounter;
 80033a2:	690b      	ldr	r3, [r1, #16]
 80033a4:	6303      	str	r3, [r0, #48]	@ 0x30
  }

  /* Generate an update event to reload the Prescaler
     and the repetition counter (only for advanced timer) value immediately */
  TIMx->EGR = TIM_EGR_UG;
 80033a6:	2301      	movs	r3, #1
 80033a8:	6143      	str	r3, [r0, #20]

  /* Check if the update flag is set after the Update Generation, if so clear the UIF flag */
  if (HAL_IS_BIT_SET(TIMx->SR, TIM_FLAG_UPDATE))
 80033aa:	6903      	ldr	r3, [r0, #16]
 80033ac:	f013 0f01 	tst.w	r3, #1
 80033b0:	d016      	beq.n	80033e0 <TIM_Base_SetConfig+0x19a>
  {
    /* Clear the update flag */
    CLEAR_BIT(TIMx->SR, TIM_FLAG_UPDATE);
 80033b2:	6903      	ldr	r3, [r0, #16]
 80033b4:	f023 0301 	bic.w	r3, r3, #1
 80033b8:	6103      	str	r3, [r0, #16]
  }
}
 80033ba:	4770      	bx	lr
    tmpcr1 &= ~(TIM_CR1_DIR | TIM_CR1_CMS);
 80033bc:	f023 0370 	bic.w	r3, r3, #112	@ 0x70
    tmpcr1 |= Structure->CounterMode;
 80033c0:	684a      	ldr	r2, [r1, #4]
 80033c2:	4313      	orrs	r3, r2
    tmpcr1 &= ~TIM_CR1_CKD;
 80033c4:	f423 7340 	bic.w	r3, r3, #768	@ 0x300
    tmpcr1 |= (uint32_t)Structure->ClockDivision;
 80033c8:	68ca      	ldr	r2, [r1, #12]
 80033ca:	4313      	orrs	r3, r2
  MODIFY_REG(tmpcr1, TIM_CR1_ARPE, Structure->AutoReloadPreload);
 80033cc:	f023 0380 	bic.w	r3, r3, #128	@ 0x80
 80033d0:	694a      	ldr	r2, [r1, #20]
 80033d2:	4313      	orrs	r3, r2
  TIMx->CR1 = tmpcr1;
 80033d4:	6003      	str	r3, [r0, #0]
  TIMx->ARR = (uint32_t)Structure->Period ;
 80033d6:	688b      	ldr	r3, [r1, #8]
 80033d8:	62c3      	str	r3, [r0, #44]	@ 0x2c
  TIMx->PSC = Structure->Prescaler;
 80033da:	680b      	ldr	r3, [r1, #0]
 80033dc:	6283      	str	r3, [r0, #40]	@ 0x28
  if (IS_TIM_REPETITION_COUNTER_INSTANCE(TIMx))
 80033de:	e7e2      	b.n	80033a6 <TIM_Base_SetConfig+0x160>
}
 80033e0:	4770      	bx	lr

080033e2 <HAL_TIM_Base_Init>:
  if (htim == NULL)
 80033e2:	b340      	cbz	r0, 8003436 <HAL_TIM_Base_Init+0x54>
{
 80033e4:	b510      	push	{r4, lr}
 80033e6:	4604      	mov	r4, r0
  if (htim->State == HAL_TIM_STATE_RESET)
 80033e8:	f890 303d 	ldrb.w	r3, [r0, #61]	@ 0x3d
 80033ec:	b1f3      	cbz	r3, 800342c <HAL_TIM_Base_Init+0x4a>
  htim->State = HAL_TIM_STATE_BUSY;
 80033ee:	2302      	movs	r3, #2
 80033f0:	f884 303d 	strb.w	r3, [r4, #61]	@ 0x3d
  TIM_Base_SetConfig(htim->Instance, &htim->Init);
 80033f4:	4621      	mov	r1, r4
 80033f6:	f851 0b04 	ldr.w	r0, [r1], #4
 80033fa:	f7ff ff24 	bl	8003246 <TIM_Base_SetConfig>
  htim->DMABurstState = HAL_DMA_BURST_STATE_READY;
 80033fe:	2301      	movs	r3, #1
 8003400:	f884 3046 	strb.w	r3, [r4, #70]	@ 0x46
  TIM_CHANNEL_STATE_SET_ALL(htim, HAL_TIM_CHANNEL_STATE_READY);
 8003404:	f884 303e 	strb.w	r3, [r4, #62]	@ 0x3e
 8003408:	f884 303f 	strb.w	r3, [r4, #63]	@ 0x3f
 800340c:	f884 3040 	strb.w	r3, [r4, #64]	@ 0x40
 8003410:	f884 3041 	strb.w	r3, [r4, #65]	@ 0x41
  TIM_CHANNEL_N_STATE_SET_ALL(htim, HAL_TIM_CHANNEL_STATE_READY);
 8003414:	f884 3042 	strb.w	r3, [r4, #66]	@ 0x42
 8003418:	f884 3043 	strb.w	r3, [r4, #67]	@ 0x43
 800341c:	f884 3044 	strb.w	r3, [r4, #68]	@ 0x44
 8003420:	f884 3045 	strb.w	r3, [r4, #69]	@ 0x45
  htim->State = HAL_TIM_STATE_READY;
 8003424:	f884 303d 	strb.w	r3, [r4, #61]	@ 0x3d
  return HAL_OK;
 8003428:	2000      	movs	r0, #0
}
 800342a:	bd10      	pop	{r4, pc}
    htim->Lock = HAL_UNLOCKED;
 800342c:	f880 303c 	strb.w	r3, [r0, #60]	@ 0x3c
    HAL_TIM_Base_MspInit(htim);
 8003430:	f7fe fc0f 	bl	8001c52 <HAL_TIM_Base_MspInit>
 8003434:	e7db      	b.n	80033ee <HAL_TIM_Base_Init+0xc>
    return HAL_ERROR;
 8003436:	2001      	movs	r0, #1
}
 8003438:	4770      	bx	lr

0800343a <TIM_ETR_SetConfig>:
  *          This parameter must be a value between 0x00 and 0x0F
  * @retval None
  */
void TIM_ETR_SetConfig(TIM_TypeDef *TIMx, uint32_t TIM_ExtTRGPrescaler,
                       uint32_t TIM_ExtTRGPolarity, uint32_t ExtTRGFilter)
{
 800343a:	b410      	push	{r4}
  uint32_t tmpsmcr;

  tmpsmcr = TIMx->SMCR;
 800343c:	6884      	ldr	r4, [r0, #8]

  /* Reset the ETR Bits */
  tmpsmcr &= ~(TIM_SMCR_ETF | TIM_SMCR_ETPS | TIM_SMCR_ECE | TIM_SMCR_ETP);
 800343e:	f424 4c7f 	bic.w	ip, r4, #65280	@ 0xff00

  /* Set the Prescaler, the Filter value and the Polarity */
  tmpsmcr |= (uint32_t)(TIM_ExtTRGPrescaler | (TIM_ExtTRGPolarity | (ExtTRGFilter << 8U)));
 8003442:	430a      	orrs	r2, r1
 8003444:	ea42 2203 	orr.w	r2, r2, r3, lsl #8
 8003448:	ea42 020c 	orr.w	r2, r2, ip

  /* Write to TIMx SMCR */
  TIMx->SMCR = tmpsmcr;
 800344c:	6082      	str	r2, [r0, #8]
}
 800344e:	bc10      	pop	{r4}
 8003450:	4770      	bx	lr

08003452 <HAL_TIM_ConfigClockSource>:
{
 8003452:	b538      	push	{r3, r4, r5, lr}
  __HAL_LOCK(htim);
 8003454:	f890 303c 	ldrb.w	r3, [r0, #60]	@ 0x3c
 8003458:	2b01      	cmp	r3, #1
 800345a:	f000 80ad 	beq.w	80035b8 <HAL_TIM_ConfigClockSource+0x166>
 800345e:	4604      	mov	r4, r0
 8003460:	2301      	movs	r3, #1
 8003462:	f880 303c 	strb.w	r3, [r0, #60]	@ 0x3c
  htim->State = HAL_TIM_STATE_BUSY;
 8003466:	2302      	movs	r3, #2
 8003468:	f880 303d 	strb.w	r3, [r0, #61]	@ 0x3d
  tmpsmcr = htim->Instance->SMCR;
 800346c:	6802      	ldr	r2, [r0, #0]
 800346e:	6893      	ldr	r3, [r2, #8]
  tmpsmcr &= ~(TIM_SMCR_ETF | TIM_SMCR_ETPS | TIM_SMCR_ECE | TIM_SMCR_ETP);
 8003470:	f423 437f 	bic.w	r3, r3, #65280	@ 0xff00
 8003474:	f023 0377 	bic.w	r3, r3, #119	@ 0x77
  htim->Instance->SMCR = tmpsmcr;
 8003478:	6093      	str	r3, [r2, #8]
  switch (sClockSourceConfig->ClockSource)
 800347a:	680b      	ldr	r3, [r1, #0]
 800347c:	2b60      	cmp	r3, #96	@ 0x60
 800347e:	d060      	beq.n	8003542 <HAL_TIM_ConfigClockSource+0xf0>
 8003480:	d837      	bhi.n	80034f2 <HAL_TIM_ConfigClockSource+0xa0>
 8003482:	2b40      	cmp	r3, #64	@ 0x40
 8003484:	d079      	beq.n	800357a <HAL_TIM_ConfigClockSource+0x128>
 8003486:	d815      	bhi.n	80034b4 <HAL_TIM_ConfigClockSource+0x62>
 8003488:	2b20      	cmp	r3, #32
 800348a:	d007      	beq.n	800349c <HAL_TIM_ConfigClockSource+0x4a>
 800348c:	d804      	bhi.n	8003498 <HAL_TIM_ConfigClockSource+0x46>
 800348e:	f033 0210 	bics.w	r2, r3, #16
 8003492:	d003      	beq.n	800349c <HAL_TIM_ConfigClockSource+0x4a>
 8003494:	2001      	movs	r0, #1
 8003496:	e040      	b.n	800351a <HAL_TIM_ConfigClockSource+0xc8>
 8003498:	2b30      	cmp	r3, #48	@ 0x30
 800349a:	d109      	bne.n	80034b0 <HAL_TIM_ConfigClockSource+0x5e>
      TIM_ITRx_SetConfig(htim->Instance, sClockSourceConfig->ClockSource);
 800349c:	6821      	ldr	r1, [r4, #0]
  tmpsmcr = TIMx->SMCR;
 800349e:	688a      	ldr	r2, [r1, #8]
  tmpsmcr &= ~TIM_SMCR_TS;
 80034a0:	f022 0270 	bic.w	r2, r2, #112	@ 0x70
  tmpsmcr |= (InputTriggerSource | TIM_SLAVEMODE_EXTERNAL1);
 80034a4:	4313      	orrs	r3, r2
 80034a6:	f043 0307 	orr.w	r3, r3, #7
  TIMx->SMCR = tmpsmcr;
 80034aa:	608b      	str	r3, [r1, #8]
  HAL_StatusTypeDef status = HAL_OK;
 80034ac:	2000      	movs	r0, #0
}
 80034ae:	e034      	b.n	800351a <HAL_TIM_ConfigClockSource+0xc8>
  switch (sClockSourceConfig->ClockSource)
 80034b0:	2001      	movs	r0, #1
 80034b2:	e032      	b.n	800351a <HAL_TIM_ConfigClockSource+0xc8>
 80034b4:	2b50      	cmp	r3, #80	@ 0x50
 80034b6:	d11a      	bne.n	80034ee <HAL_TIM_ConfigClockSource+0x9c>
      TIM_TI1_ConfigInputStage(htim->Instance,
 80034b8:	6803      	ldr	r3, [r0, #0]
                               sClockSourceConfig->ClockPolarity,
 80034ba:	6848      	ldr	r0, [r1, #4]
                               sClockSourceConfig->ClockFilter);
 80034bc:	68cd      	ldr	r5, [r1, #12]
  tmpccer = TIMx->CCER;
 80034be:	6a19      	ldr	r1, [r3, #32]
  TIMx->CCER &= ~TIM_CCER_CC1E;
 80034c0:	6a1a      	ldr	r2, [r3, #32]
 80034c2:	f022 0201 	bic.w	r2, r2, #1
 80034c6:	621a      	str	r2, [r3, #32]
  tmpccmr1 = TIMx->CCMR1;
 80034c8:	699a      	ldr	r2, [r3, #24]
  tmpccmr1 &= ~TIM_CCMR1_IC1F;
 80034ca:	f022 02f0 	bic.w	r2, r2, #240	@ 0xf0
  tmpccmr1 |= (TIM_ICFilter << 4U);
 80034ce:	ea42 1205 	orr.w	r2, r2, r5, lsl #4
  tmpccer &= ~(TIM_CCER_CC1P | TIM_CCER_CC1NP);
 80034d2:	f021 010a 	bic.w	r1, r1, #10
  tmpccer |= TIM_ICPolarity;
 80034d6:	4301      	orrs	r1, r0
  TIMx->CCMR1 = tmpccmr1;
 80034d8:	619a      	str	r2, [r3, #24]
  TIMx->CCER = tmpccer;
 80034da:	6219      	str	r1, [r3, #32]
      TIM_ITRx_SetConfig(htim->Instance, TIM_CLOCKSOURCE_TI1);
 80034dc:	6822      	ldr	r2, [r4, #0]
  tmpsmcr = TIMx->SMCR;
 80034de:	6893      	ldr	r3, [r2, #8]
  tmpsmcr &= ~TIM_SMCR_TS;
 80034e0:	f023 0370 	bic.w	r3, r3, #112	@ 0x70
  tmpsmcr |= (InputTriggerSource | TIM_SLAVEMODE_EXTERNAL1);
 80034e4:	f043 0357 	orr.w	r3, r3, #87	@ 0x57
  TIMx->SMCR = tmpsmcr;
 80034e8:	6093      	str	r3, [r2, #8]
  HAL_StatusTypeDef status = HAL_OK;
 80034ea:	2000      	movs	r0, #0
}
 80034ec:	e015      	b.n	800351a <HAL_TIM_ConfigClockSource+0xc8>
  switch (sClockSourceConfig->ClockSource)
 80034ee:	2001      	movs	r0, #1
 80034f0:	e013      	b.n	800351a <HAL_TIM_ConfigClockSource+0xc8>
 80034f2:	f5b3 5f80 	cmp.w	r3, #4096	@ 0x1000
 80034f6:	d05b      	beq.n	80035b0 <HAL_TIM_ConfigClockSource+0x15e>
 80034f8:	f5b3 5f00 	cmp.w	r3, #8192	@ 0x2000
 80034fc:	d014      	beq.n	8003528 <HAL_TIM_ConfigClockSource+0xd6>
 80034fe:	2b70      	cmp	r3, #112	@ 0x70
 8003500:	d158      	bne.n	80035b4 <HAL_TIM_ConfigClockSource+0x162>
      TIM_ETR_SetConfig(htim->Instance,
 8003502:	68cb      	ldr	r3, [r1, #12]
 8003504:	684a      	ldr	r2, [r1, #4]
 8003506:	6889      	ldr	r1, [r1, #8]
 8003508:	6800      	ldr	r0, [r0, #0]
 800350a:	f7ff ff96 	bl	800343a <TIM_ETR_SetConfig>
      tmpsmcr = htim->Instance->SMCR;
 800350e:	6822      	ldr	r2, [r4, #0]
 8003510:	6893      	ldr	r3, [r2, #8]
      tmpsmcr |= (TIM_SLAVEMODE_EXTERNAL1 | TIM_CLOCKSOURCE_ETRMODE1);
 8003512:	f043 0377 	orr.w	r3, r3, #119	@ 0x77
      htim->Instance->SMCR = tmpsmcr;
 8003516:	6093      	str	r3, [r2, #8]
  HAL_StatusTypeDef status = HAL_OK;
 8003518:	2000      	movs	r0, #0
  htim->State = HAL_TIM_STATE_READY;
 800351a:	2301      	movs	r3, #1
 800351c:	f884 303d 	strb.w	r3, [r4, #61]	@ 0x3d
  __HAL_UNLOCK(htim);
 8003520:	2300      	movs	r3, #0
 8003522:	f884 303c 	strb.w	r3, [r4, #60]	@ 0x3c
}
 8003526:	bd38      	pop	{r3, r4, r5, pc}
      TIM_ETR_SetConfig(htim->Instance,
 8003528:	68cb      	ldr	r3, [r1, #12]
 800352a:	684a      	ldr	r2, [r1, #4]
 800352c:	6889      	ldr	r1, [r1, #8]
 800352e:	6800      	ldr	r0, [r0, #0]
 8003530:	f7ff ff83 	bl	800343a <TIM_ETR_SetConfig>
      htim->Instance->SMCR |= TIM_SMCR_ECE;
 8003534:	6822      	ldr	r2, [r4, #0]
 8003536:	6893      	ldr	r3, [r2, #8]
 8003538:	f443 4380 	orr.w	r3, r3, #16384	@ 0x4000
 800353c:	6093      	str	r3, [r2, #8]
  HAL_StatusTypeDef status = HAL_OK;
 800353e:	2000      	movs	r0, #0
      break;
 8003540:	e7eb      	b.n	800351a <HAL_TIM_ConfigClockSource+0xc8>
      TIM_TI2_ConfigInputStage(htim->Instance,
 8003542:	6803      	ldr	r3, [r0, #0]
                               sClockSourceConfig->ClockPolarity,
 8003544:	6848      	ldr	r0, [r1, #4]
                               sClockSourceConfig->ClockFilter);
 8003546:	68cd      	ldr	r5, [r1, #12]
  tmpccer = TIMx->CCER;
 8003548:	6a1a      	ldr	r2, [r3, #32]
  TIMx->CCER &= ~TIM_CCER_CC2E;
 800354a:	6a19      	ldr	r1, [r3, #32]
 800354c:	f021 0110 	bic.w	r1, r1, #16
 8003550:	6219      	str	r1, [r3, #32]
  tmpccmr1 = TIMx->CCMR1;
 8003552:	6999      	ldr	r1, [r3, #24]
  tmpccmr1 &= ~TIM_CCMR1_IC2F;
 8003554:	f421 4170 	bic.w	r1, r1, #61440	@ 0xf000
  tmpccmr1 |= (TIM_ICFilter << 12U);
 8003558:	ea41 3105 	orr.w	r1, r1, r5, lsl #12
  tmpccer &= ~(TIM_CCER_CC2P | TIM_CCER_CC2NP);
 800355c:	f022 02a0 	bic.w	r2, r2, #160	@ 0xa0
  tmpccer |= (TIM_ICPolarity << 4U);
 8003560:	ea42 1200 	orr.w	r2, r2, r0, lsl #4
  TIMx->CCMR1 = tmpccmr1 ;
 8003564:	6199      	str	r1, [r3, #24]
  TIMx->CCER = tmpccer;
 8003566:	621a      	str	r2, [r3, #32]
      TIM_ITRx_SetConfig(htim->Instance, TIM_CLOCKSOURCE_TI2);
 8003568:	6822      	ldr	r2, [r4, #0]
  tmpsmcr = TIMx->SMCR;
 800356a:	6893      	ldr	r3, [r2, #8]
  tmpsmcr &= ~TIM_SMCR_TS;
 800356c:	f023 0370 	bic.w	r3, r3, #112	@ 0x70
  tmpsmcr |= (InputTriggerSource | TIM_SLAVEMODE_EXTERNAL1);
 8003570:	f043 0367 	orr.w	r3, r3, #103	@ 0x67
  TIMx->SMCR = tmpsmcr;
 8003574:	6093      	str	r3, [r2, #8]
  HAL_StatusTypeDef status = HAL_OK;
 8003576:	2000      	movs	r0, #0
}
 8003578:	e7cf      	b.n	800351a <HAL_TIM_ConfigClockSource+0xc8>
      TIM_TI1_ConfigInputStage(htim->Instance,
 800357a:	6803      	ldr	r3, [r0, #0]
                               sClockSourceConfig->ClockPolarity,
 800357c:	6848      	ldr	r0, [r1, #4]
                               sClockSourceConfig->ClockFilter);
 800357e:	68cd      	ldr	r5, [r1, #12]
  tmpccer = TIMx->CCER;
 8003580:	6a19      	ldr	r1, [r3, #32]
  TIMx->CCER &= ~TIM_CCER_CC1E;
 8003582:	6a1a      	ldr	r2, [r3, #32]
 8003584:	f022 0201 	bic.w	r2, r2, #1
 8003588:	621a      	str	r2, [r3, #32]
  tmpccmr1 = TIMx->CCMR1;
 800358a:	699a      	ldr	r2, [r3, #24]
  tmpccmr1 &= ~TIM_CCMR1_IC1F;
 800358c:	f022 02f0 	bic.w	r2, r2, #240	@ 0xf0
  tmpccmr1 |= (TIM_ICFilter << 4U);
 8003590:	ea42 1205 	orr.w	r2, r2, r5, lsl #4
  tmpccer &= ~(TIM_CCER_CC1P | TIM_CCER_CC1NP);
 8003594:	f021 010a 	bic.w	r1, r1, #10
  tmpccer |= TIM_ICPolarity;
 8003598:	4301      	orrs	r1, r0
  TIMx->CCMR1 = tmpccmr1;
 800359a:	619a      	str	r2, [r3, #24]
  TIMx->CCER = tmpccer;
 800359c:	6219      	str	r1, [r3, #32]
      TIM_ITRx_SetConfig(htim->Instance, TIM_CLOCKSOURCE_TI1ED);
 800359e:	6822      	ldr	r2, [r4, #0]
  tmpsmcr = TIMx->SMCR;
 80035a0:	6893      	ldr	r3, [r2, #8]
  tmpsmcr &= ~TIM_SMCR_TS;
 80035a2:	f023 0370 	bic.w	r3, r3, #112	@ 0x70
  tmpsmcr |= (InputTriggerSource | TIM_SLAVEMODE_EXTERNAL1);
 80035a6:	f043 0347 	orr.w	r3, r3, #71	@ 0x47
  TIMx->SMCR = tmpsmcr;
 80035aa:	6093      	str	r3, [r2, #8]
  HAL_StatusTypeDef status = HAL_OK;
 80035ac:	2000      	movs	r0, #0
}
 80035ae:	e7b4      	b.n	800351a <HAL_TIM_ConfigClockSource+0xc8>
  HAL_StatusTypeDef status = HAL_OK;
 80035b0:	2000      	movs	r0, #0
 80035b2:	e7b2      	b.n	800351a <HAL_TIM_ConfigClockSource+0xc8>
  switch (sClockSourceConfig->ClockSource)
 80035b4:	2001      	movs	r0, #1
 80035b6:	e7b0      	b.n	800351a <HAL_TIM_ConfigClockSource+0xc8>
  __HAL_LOCK(htim);
 80035b8:	2002      	movs	r0, #2
 80035ba:	e7b4      	b.n	8003526 <HAL_TIM_ConfigClockSource+0xd4>

080035bc <HAL_TIMEx_MasterConfigSynchronization>:
  assert_param(IS_TIM_MASTER_INSTANCE(htim->Instance));
  assert_param(IS_TIM_TRGO_SOURCE(sMasterConfig->MasterOutputTrigger));
  assert_param(IS_TIM_MSM_STATE(sMasterConfig->MasterSlaveMode));

  /* Check input state */
  __HAL_LOCK(htim);
 80035bc:	f890 203c 	ldrb.w	r2, [r0, #60]	@ 0x3c
 80035c0:	2a01      	cmp	r2, #1
 80035c2:	d038      	beq.n	8003636 <HAL_TIMEx_MasterConfigSynchronization+0x7a>
{
 80035c4:	b430      	push	{r4, r5}
 80035c6:	4603      	mov	r3, r0
  __HAL_LOCK(htim);
 80035c8:	2201      	movs	r2, #1
 80035ca:	f880 203c 	strb.w	r2, [r0, #60]	@ 0x3c

  /* Change the handler state */
  htim->State = HAL_TIM_STATE_BUSY;
 80035ce:	2202      	movs	r2, #2
 80035d0:	f880 203d 	strb.w	r2, [r0, #61]	@ 0x3d

  /* Get the TIMx CR2 register value */
  tmpcr2 = htim->Instance->CR2;
 80035d4:	6804      	ldr	r4, [r0, #0]
 80035d6:	6862      	ldr	r2, [r4, #4]

  /* Get the TIMx SMCR register value */
  tmpsmcr = htim->Instance->SMCR;
 80035d8:	68a0      	ldr	r0, [r4, #8]

  /* Reset the MMS Bits */
  tmpcr2 &= ~TIM_CR2_MMS;
 80035da:	f022 0270 	bic.w	r2, r2, #112	@ 0x70
  /* Select the TRGO source */
  tmpcr2 |=  sMasterConfig->MasterOutputTrigger;
 80035de:	680d      	ldr	r5, [r1, #0]
 80035e0:	432a      	orrs	r2, r5

  /* Update TIMx CR2 */
  htim->Instance->CR2 = tmpcr2;
 80035e2:	6062      	str	r2, [r4, #4]

  if (IS_TIM_SLAVE_INSTANCE(htim->Instance))
 80035e4:	681a      	ldr	r2, [r3, #0]
 80035e6:	f44f 5430 	mov.w	r4, #11264	@ 0x2c00
 80035ea:	f2c4 0401 	movt	r4, #16385	@ 0x4001
 80035ee:	42a2      	cmp	r2, r4
 80035f0:	d014      	beq.n	800361c <HAL_TIMEx_MasterConfigSynchronization+0x60>
 80035f2:	f1b2 4f80 	cmp.w	r2, #1073741824	@ 0x40000000
 80035f6:	d011      	beq.n	800361c <HAL_TIMEx_MasterConfigSynchronization+0x60>
 80035f8:	f44f 6480 	mov.w	r4, #1024	@ 0x400
 80035fc:	f2c4 0400 	movt	r4, #16384	@ 0x4000
 8003600:	42a2      	cmp	r2, r4
 8003602:	d00b      	beq.n	800361c <HAL_TIMEx_MasterConfigSynchronization+0x60>
 8003604:	f44f 6400 	mov.w	r4, #2048	@ 0x800
 8003608:	f2c4 0400 	movt	r4, #16384	@ 0x4000
 800360c:	42a2      	cmp	r2, r4
 800360e:	d005      	beq.n	800361c <HAL_TIMEx_MasterConfigSynchronization+0x60>
 8003610:	f44f 4480 	mov.w	r4, #16384	@ 0x4000
 8003614:	f2c4 0401 	movt	r4, #16385	@ 0x4001
 8003618:	42a2      	cmp	r2, r4
 800361a:	d104      	bne.n	8003626 <HAL_TIMEx_MasterConfigSynchronization+0x6a>
  {
    /* Reset the MSM Bit */
    tmpsmcr &= ~TIM_SMCR_MSM;
 800361c:	f020 0080 	bic.w	r0, r0, #128	@ 0x80
    /* Set master mode */
    tmpsmcr |= sMasterConfig->MasterSlaveMode;
 8003620:	6849      	ldr	r1, [r1, #4]
 8003622:	4308      	orrs	r0, r1

    /* Update TIMx SMCR */
    htim->Instance->SMCR = tmpsmcr;
 8003624:	6090      	str	r0, [r2, #8]
  }

  /* Change the htim state */
  htim->State = HAL_TIM_STATE_READY;
 8003626:	2201      	movs	r2, #1
 8003628:	f883 203d 	strb.w	r2, [r3, #61]	@ 0x3d

  __HAL_UNLOCK(htim);
 800362c:	2000      	movs	r0, #0
 800362e:	f883 003c 	strb.w	r0, [r3, #60]	@ 0x3c

  return HAL_OK;
}
 8003632:	bc30      	pop	{r4, r5}
 8003634:	4770      	bx	lr
  __HAL_LOCK(htim);
 8003636:	2002      	movs	r0, #2
}
 8003638:	4770      	bx	lr

0800363a <HAL_TIMEx_CommutCallback>:
  UNUSED(htim);

  /* NOTE : This function should not be modified, when the callback is needed,
            the HAL_TIMEx_CommutCallback could be implemented in the user file
   */
}
 800363a:	4770      	bx	lr

0800363c <HAL_TIMEx_BreakCallback>:
  UNUSED(htim);

  /* NOTE : This function should not be modified, when the callback is needed,
            the HAL_TIMEx_BreakCallback could be implemented in the user file
   */
}
 800363c:	4770      	bx	lr

0800363e <UART_SetConfig>:
  * @param  huart  Pointer to a UART_HandleTypeDef structure that contains
  *                the configuration information for the specified UART module.
  * @retval None
  */
static void UART_SetConfig(UART_HandleTypeDef *huart)
{
 800363e:	b510      	push	{r4, lr}
 8003640:	4604      	mov	r4, r0
  assert_param(IS_UART_MODE(huart->Init.Mode));

  /*-------------------------- USART CR2 Configuration -----------------------*/
  /* Configure the UART Stop Bits: Set STOP[13:12] bits
     according to huart->Init.StopBits value */
  MODIFY_REG(huart->Instance->CR2, USART_CR2_STOP, huart->Init.StopBits);
 8003642:	6802      	ldr	r2, [r0, #0]
 8003644:	6913      	ldr	r3, [r2, #16]
 8003646:	f423 5340 	bic.w	r3, r3, #12288	@ 0x3000
 800364a:	68c1      	ldr	r1, [r0, #12]
 800364c:	430b      	orrs	r3, r1
 800364e:	6113      	str	r3, [r2, #16]
     Set TE and RE bits according to huart->Init.Mode value
     Set OVER8 bit according to huart->Init.OverSampling value */

#if defined(USART_CR1_OVER8)
  tmpreg = (uint32_t)huart->Init.WordLength | huart->Init.Parity | huart->Init.Mode | huart->Init.OverSampling;
  MODIFY_REG(huart->Instance->CR1,
 8003650:	6801      	ldr	r1, [r0, #0]
 8003652:	68ca      	ldr	r2, [r1, #12]
  tmpreg = (uint32_t)huart->Init.WordLength | huart->Init.Parity | huart->Init.Mode | huart->Init.OverSampling;
 8003654:	6883      	ldr	r3, [r0, #8]
 8003656:	6900      	ldr	r0, [r0, #16]
 8003658:	4303      	orrs	r3, r0
 800365a:	6960      	ldr	r0, [r4, #20]
 800365c:	4303      	orrs	r3, r0
 800365e:	69e0      	ldr	r0, [r4, #28]
 8003660:	4303      	orrs	r3, r0
  MODIFY_REG(huart->Instance->CR1,
 8003662:	f422 4216 	bic.w	r2, r2, #38400	@ 0x9600
 8003666:	f022 020c 	bic.w	r2, r2, #12
 800366a:	4313      	orrs	r3, r2
 800366c:	60cb      	str	r3, [r1, #12]
             tmpreg);
#endif /* USART_CR1_OVER8 */

  /*-------------------------- USART CR3 Configuration -----------------------*/
  /* Configure the UART HFC: Set CTSE and RTSE bits according to huart->Init.HwFlowCtl value */
  MODIFY_REG(huart->Instance->CR3, (USART_CR3_RTSE | USART_CR3_CTSE), huart->Init.HwFlowCtl);
 800366e:	6822      	ldr	r2, [r4, #0]
 8003670:	6953      	ldr	r3, [r2, #20]
 8003672:	f423 7340 	bic.w	r3, r3, #768	@ 0x300
 8003676:	69a1      	ldr	r1, [r4, #24]
 8003678:	430b      	orrs	r3, r1
 800367a:	6153      	str	r3, [r2, #20]


  if(huart->Instance == USART1)
 800367c:	f44f 5360 	mov.w	r3, #14336	@ 0x3800
 8003680:	f2c4 0301 	movt	r3, #16385	@ 0x4001
 8003684:	6822      	ldr	r2, [r4, #0]
 8003686:	429a      	cmp	r2, r3
 8003688:	d021      	beq.n	80036ce <UART_SetConfig+0x90>
  {
    pclk = HAL_RCC_GetPCLK2Freq();
  }
  else
  {
    pclk = HAL_RCC_GetPCLK1Freq();
 800368a:	f7ff fbd7 	bl	8002e3c <HAL_RCC_GetPCLK1Freq>
  }

  /*-------------------------- USART BRR Configuration ---------------------*/
#if defined(USART_CR1_OVER8)
  if (huart->Init.OverSampling == UART_OVERSAMPLING_8)
 800368e:	69e3      	ldr	r3, [r4, #28]
 8003690:	f5b3 4f00 	cmp.w	r3, #32768	@ 0x8000
 8003694:	d01e      	beq.n	80036d4 <UART_SetConfig+0x96>
  {
    huart->Instance->BRR = UART_BRR_SAMPLING8(pclk, huart->Init.BaudRate);
  }
  else
  {
    huart->Instance->BRR = UART_BRR_SAMPLING16(pclk, huart->Init.BaudRate);
 8003696:	eb00 0380 	add.w	r3, r0, r0, lsl #2
 800369a:	eb03 0383 	add.w	r3, r3, r3, lsl #2
 800369e:	6862      	ldr	r2, [r4, #4]
 80036a0:	0092      	lsls	r2, r2, #2
 80036a2:	fbb3 f3f2 	udiv	r3, r3, r2
 80036a6:	6820      	ldr	r0, [r4, #0]
 80036a8:	f248 511f 	movw	r1, #34079	@ 0x851f
 80036ac:	f2c5 11eb 	movt	r1, #20971	@ 0x51eb
 80036b0:	fba1 4203 	umull	r4, r2, r1, r3
 80036b4:	0952      	lsrs	r2, r2, #5
 80036b6:	2464      	movs	r4, #100	@ 0x64
 80036b8:	fb04 3312 	mls	r3, r4, r2, r3
 80036bc:	011b      	lsls	r3, r3, #4
 80036be:	3332      	adds	r3, #50	@ 0x32
 80036c0:	fba1 1303 	umull	r1, r3, r1, r3
 80036c4:	0112      	lsls	r2, r2, #4
 80036c6:	eb02 1253 	add.w	r2, r2, r3, lsr #5
 80036ca:	6082      	str	r2, [r0, #8]
  }
#else
  huart->Instance->BRR = UART_BRR_SAMPLING16(pclk, huart->Init.BaudRate);
#endif /* USART_CR1_OVER8 */
}
 80036cc:	bd10      	pop	{r4, pc}
    pclk = HAL_RCC_GetPCLK2Freq();
 80036ce:	f7ff fbc8 	bl	8002e62 <HAL_RCC_GetPCLK2Freq>
 80036d2:	e7dc      	b.n	800368e <UART_SetConfig+0x50>
    huart->Instance->BRR = UART_BRR_SAMPLING8(pclk, huart->Init.BaudRate);
 80036d4:	eb00 0080 	add.w	r0, r0, r0, lsl #2
 80036d8:	eb00 0080 	add.w	r0, r0, r0, lsl #2
 80036dc:	6863      	ldr	r3, [r4, #4]
 80036de:	005b      	lsls	r3, r3, #1
 80036e0:	fbb0 f3f3 	udiv	r3, r0, r3
 80036e4:	f248 521f 	movw	r2, #34079	@ 0x851f
 80036e8:	f2c5 12eb 	movt	r2, #20971	@ 0x51eb
 80036ec:	fba2 0103 	umull	r0, r1, r2, r3
 80036f0:	0949      	lsrs	r1, r1, #5
 80036f2:	2064      	movs	r0, #100	@ 0x64
 80036f4:	fb00 3311 	mls	r3, r0, r1, r3
 80036f8:	00db      	lsls	r3, r3, #3
 80036fa:	3332      	adds	r3, #50	@ 0x32
 80036fc:	fba2 2303 	umull	r2, r3, r2, r3
 8003700:	6820      	ldr	r0, [r4, #0]
 8003702:	f3c3 1242 	ubfx	r2, r3, #5, #3
 8003706:	eb02 1201 	add.w	r2, r2, r1, lsl #4
 800370a:	091b      	lsrs	r3, r3, #4
 800370c:	f403 73f8 	and.w	r3, r3, #496	@ 0x1f0
 8003710:	4413      	add	r3, r2
 8003712:	6083      	str	r3, [r0, #8]
 8003714:	e7da      	b.n	80036cc <UART_SetConfig+0x8e>

08003716 <HAL_UART_Init>:
  if (huart == NULL)
 8003716:	b360      	cbz	r0, 8003772 <HAL_UART_Init+0x5c>
{
 8003718:	b510      	push	{r4, lr}
 800371a:	4604      	mov	r4, r0
  if (huart->gState == HAL_UART_STATE_RESET)
 800371c:	f890 3041 	ldrb.w	r3, [r0, #65]	@ 0x41
 8003720:	b313      	cbz	r3, 8003768 <HAL_UART_Init+0x52>
  huart->gState = HAL_UART_STATE_BUSY;
 8003722:	2324      	movs	r3, #36	@ 0x24
 8003724:	f884 3041 	strb.w	r3, [r4, #65]	@ 0x41
  __HAL_UART_DISABLE(huart);
 8003728:	6822      	ldr	r2, [r4, #0]
 800372a:	68d3      	ldr	r3, [r2, #12]
 800372c:	f423 5300 	bic.w	r3, r3, #8192	@ 0x2000
 8003730:	60d3      	str	r3, [r2, #12]
  UART_SetConfig(huart);
 8003732:	4620      	mov	r0, r4
 8003734:	f7ff ff83 	bl	800363e <UART_SetConfig>
  CLEAR_BIT(huart->Instance->CR2, (USART_CR2_LINEN | USART_CR2_CLKEN));
 8003738:	6822      	ldr	r2, [r4, #0]
 800373a:	6913      	ldr	r3, [r2, #16]
 800373c:	f423 4390 	bic.w	r3, r3, #18432	@ 0x4800
 8003740:	6113      	str	r3, [r2, #16]
  CLEAR_BIT(huart->Instance->CR3, (USART_CR3_SCEN | USART_CR3_HDSEL | USART_CR3_IREN));
 8003742:	6822      	ldr	r2, [r4, #0]
 8003744:	6953      	ldr	r3, [r2, #20]
 8003746:	f023 032a 	bic.w	r3, r3, #42	@ 0x2a
 800374a:	6153      	str	r3, [r2, #20]
  __HAL_UART_ENABLE(huart);
 800374c:	6822      	ldr	r2, [r4, #0]
 800374e:	68d3      	ldr	r3, [r2, #12]
 8003750:	f443 5300 	orr.w	r3, r3, #8192	@ 0x2000
 8003754:	60d3      	str	r3, [r2, #12]
  huart->ErrorCode = HAL_UART_ERROR_NONE;
 8003756:	2000      	movs	r0, #0
 8003758:	6460      	str	r0, [r4, #68]	@ 0x44
  huart->gState = HAL_UART_STATE_READY;
 800375a:	2320      	movs	r3, #32
 800375c:	f884 3041 	strb.w	r3, [r4, #65]	@ 0x41
  huart->RxState = HAL_UART_STATE_READY;
 8003760:	f884 3042 	strb.w	r3, [r4, #66]	@ 0x42
  huart->RxEventType = HAL_UART_RXEVENT_TC;
 8003764:	6360      	str	r0, [r4, #52]	@ 0x34
}
 8003766:	bd10      	pop	{r4, pc}
    huart->Lock = HAL_UNLOCKED;
 8003768:	f880 3040 	strb.w	r3, [r0, #64]	@ 0x40
    HAL_UART_MspInit(huart);
 800376c:	f7fe faaf 	bl	8001cce <HAL_UART_MspInit>
 8003770:	e7d7      	b.n	8003722 <HAL_UART_Init+0xc>
    return HAL_ERROR;
 8003772:	2001      	movs	r0, #1
}
 8003774:	4770      	bx	lr

08003776 <LL_ADC_Init>:
  return (READ_BIT(ADCx->CR2, ADC_CR2_ADON) == (ADC_CR2_ADON));
 8003776:	6883      	ldr	r3, [r0, #8]
  assert_param(IS_LL_ADC_DATA_ALIGN(ADC_InitStruct->DataAlignment));
  assert_param(IS_LL_ADC_SCAN_SELECTION(ADC_InitStruct->SequencersScanMode));
  
  /* Note: Hardware constraint (refer to description of this function):       */
  /*       ADC instance must be disabled.                                     */
  if(LL_ADC_IsEnabled(ADCx) == 0U)
 8003778:	f013 0f01 	tst.w	r3, #1
 800377c:	d10d      	bne.n	800379a <LL_ADC_Init+0x24>
  {
    /* Configuration of ADC hierarchical scope:                               */
    /*  - ADC instance                                                        */
    /*    - Set ADC conversion data alignment                                 */
    MODIFY_REG(ADCx->CR1,
 800377e:	6843      	ldr	r3, [r0, #4]
 8003780:	f423 7380 	bic.w	r3, r3, #256	@ 0x100
 8003784:	684a      	ldr	r2, [r1, #4]
 8003786:	4313      	orrs	r3, r2
 8003788:	6043      	str	r3, [r0, #4]
                 ADC_CR1_SCAN
              ,
                 ADC_InitStruct->SequencersScanMode
              );
    
    MODIFY_REG(ADCx->CR2,
 800378a:	6883      	ldr	r3, [r0, #8]
 800378c:	f423 6300 	bic.w	r3, r3, #2048	@ 0x800
 8003790:	680a      	ldr	r2, [r1, #0]
 8003792:	4313      	orrs	r3, r2
 8003794:	6083      	str	r3, [r0, #8]
  ErrorStatus status = SUCCESS;
 8003796:	2000      	movs	r0, #0
 8003798:	4770      	bx	lr

  }
  else
  {
    /* Initialization error: ADC instance is not disabled. */
    status = ERROR;
 800379a:	2001      	movs	r0, #1
  }
  return status;
}
 800379c:	4770      	bx	lr

0800379e <LL_ADC_REG_Init>:
 800379e:	6883      	ldr	r3, [r0, #8]
  assert_param((ADC_REG_InitStruct->ContinuousMode == LL_ADC_REG_CONV_SINGLE)
               || (ADC_REG_InitStruct->SequencerDiscont == LL_ADC_REG_SEQ_DISCONT_DISABLE));
  
  /* Note: Hardware constraint (refer to description of this function):       */
  /*       ADC instance must be disabled.                                     */
  if(LL_ADC_IsEnabled(ADCx) == 0U)
 80037a0:	f013 0f01 	tst.w	r3, #1
 80037a4:	d121      	bne.n	80037ea <LL_ADC_REG_Init+0x4c>
    /*    - Set ADC group regular conversion data transfer: no transfer or    */
    /*      transfer by DMA, and DMA requests mode                            */
    /* Note: On this STM32 series, ADC trigger edge is set when starting       */
    /*       ADC conversion.                                                  */
    /*       Refer to function @ref LL_ADC_REG_StartConversionExtTrig().      */
    if(ADC_REG_InitStruct->SequencerLength != LL_ADC_REG_SEQ_SCAN_DISABLE)
 80037a6:	684a      	ldr	r2, [r1, #4]
 80037a8:	b1d2      	cbz	r2, 80037e0 <LL_ADC_REG_Init+0x42>
    {
      MODIFY_REG(ADCx->CR1,
 80037aa:	6843      	ldr	r3, [r0, #4]
 80037ac:	f423 4368 	bic.w	r3, r3, #59392	@ 0xe800
 80037b0:	4313      	orrs	r3, r2
 80037b2:	688a      	ldr	r2, [r1, #8]
 80037b4:	4313      	orrs	r3, r2
 80037b6:	6043      	str	r3, [r0, #4]
                   ADC_REG_InitStruct->SequencerLength
                 | LL_ADC_REG_SEQ_DISCONT_DISABLE
                );
    }
    
    MODIFY_REG(ADCx->CR2,
 80037b8:	6883      	ldr	r3, [r0, #8]
 80037ba:	f423 2360 	bic.w	r3, r3, #917504	@ 0xe0000
 80037be:	f423 7381 	bic.w	r3, r3, #258	@ 0x102
 80037c2:	680a      	ldr	r2, [r1, #0]
 80037c4:	4313      	orrs	r3, r2
 80037c6:	68ca      	ldr	r2, [r1, #12]
 80037c8:	4313      	orrs	r3, r2
 80037ca:	690a      	ldr	r2, [r1, #16]
 80037cc:	4313      	orrs	r3, r2
 80037ce:	6083      	str	r3, [r0, #8]
  MODIFY_REG(ADCx->SQR1, ADC_SQR1_L, SequencerNbRanks);
 80037d0:	6ac3      	ldr	r3, [r0, #44]	@ 0x2c
 80037d2:	f423 0370 	bic.w	r3, r3, #15728640	@ 0xf00000
 80037d6:	684a      	ldr	r2, [r1, #4]
 80037d8:	4313      	orrs	r3, r2
 80037da:	62c3      	str	r3, [r0, #44]	@ 0x2c
  ErrorStatus status = SUCCESS;
 80037dc:	2000      	movs	r0, #0
}
 80037de:	4770      	bx	lr
      MODIFY_REG(ADCx->CR1,
 80037e0:	6843      	ldr	r3, [r0, #4]
 80037e2:	f423 4368 	bic.w	r3, r3, #59392	@ 0xe800
 80037e6:	6043      	str	r3, [r0, #4]
 80037e8:	e7e6      	b.n	80037b8 <LL_ADC_REG_Init+0x1a>
    LL_ADC_REG_SetSequencerLength(ADCx, ADC_REG_InitStruct->SequencerLength);
  }
  else
  {
    /* Initialization error: ADC instance is not disabled. */
    status = ERROR;
 80037ea:	2001      	movs	r0, #1
  }
  return status;
}
 80037ec:	4770      	bx	lr

080037ee <LL_GPIO_Init>:
  assert_param(IS_LL_GPIO_PIN(GPIO_InitStruct->Pin));

  /* ------------------------- Configure the port pins ---------------- */
  /* Initialize  pinpos on first pin set */

  pinmask = ((GPIO_InitStruct->Pin) << GPIO_PIN_MASK_POS) >> GPIO_PIN_NB;
 80037ee:	680b      	ldr	r3, [r1, #0]
 80037f0:	f3c3 2c0f 	ubfx	ip, r3, #8, #16
   __ASM volatile ("rbit %0, %1" : "=r" (result) : "r" (value) );
 80037f4:	fa9c f2ac 	rbit	r2, ip
  pinpos = POSITION_VAL(pinmask);
 80037f8:	fab2 f282 	clz	r2, r2

  /* Configure the port pins */
  while ((pinmask  >> pinpos) != 0u)
 80037fc:	fa3c f302 	lsrs.w	r3, ip, r2
 8003800:	f000 8087 	beq.w	8003912 <LL_GPIO_Init+0x124>
{
 8003804:	e92d 4ff0 	stmdb	sp!, {r4, r5, r6, r7, r8, r9, sl, fp, lr}
  {
    /* skip if bit is not set */
    if ((pinmask & (1u << pinpos)) != 0u)
 8003808:	f04f 0e01 	mov.w	lr, #1
  * @retval None
  */
__STATIC_INLINE void LL_GPIO_SetPinMode(GPIO_TypeDef *GPIOx, uint32_t Pin, uint32_t Mode)
{
  register uint32_t *pReg = (uint32_t *)((uint32_t)((uint32_t)(&GPIOx->CRL) + (Pin >> 24)));
  MODIFY_REG(*pReg, ((GPIO_CRL_CNF0 | GPIO_CRL_MODE0) << (POSITION_VAL(Pin) * 4U)), (Mode << (POSITION_VAL(Pin) * 4U)));
 800380c:	240f      	movs	r4, #15
  * @retval None
  */
__STATIC_INLINE void LL_GPIO_SetPinSpeed(GPIO_TypeDef *GPIOx, uint32_t Pin, uint32_t  Speed)
{
  register uint32_t *pReg = (uint32_t *)((uint32_t)((uint32_t)(&GPIOx->CRL) + (Pin >> 24)));
  MODIFY_REG(*pReg, (GPIO_CRL_MODE0 << (POSITION_VAL(Pin) * 4U)),
 800380e:	f04f 0803 	mov.w	r8, #3
      {
        currentpin = (0x00000101uL << pinpos);
      }
      else
      {
        currentpin = ((0x00010001u << (pinpos - GPIO_PIN_MASK_POS)) | 0x04000000u);
 8003812:	f04f 1501 	mov.w	r5, #65537	@ 0x10001
        currentpin = (0x00000101uL << pinpos);
 8003816:	f240 1701 	movw	r7, #257	@ 0x101
 800381a:	46e1      	mov	r9, ip
 800381c:	e025      	b.n	800386a <LL_GPIO_Init+0x7c>
  register uint32_t *pReg = (uint32_t *)((uint32_t)((uint32_t)(&GPIOx->CRL) + (Pin >> 24)));
 800381e:	ea4f 6c13 	mov.w	ip, r3, lsr #24
 8003822:	fa93 faa3 	rbit	sl, r3
  MODIFY_REG(*pReg, ((GPIO_CRL_CNF0 | GPIO_CRL_MODE0) << (POSITION_VAL(Pin) * 4U)), (Mode << (POSITION_VAL(Pin) * 4U)));
 8003826:	faba fa8a 	clz	sl, sl
 800382a:	fa93 fba3 	rbit	fp, r3
 800382e:	fabb fb8b 	clz	fp, fp
 8003832:	ea4f 0a8a 	mov.w	sl, sl, lsl #2
 8003836:	fa04 fa0a 	lsl.w	sl, r4, sl
 800383a:	f850 600c 	ldr.w	r6, [r0, ip]
 800383e:	ea26 0a0a 	bic.w	sl, r6, sl
 8003842:	ea4f 0b8b 	mov.w	fp, fp, lsl #2
 8003846:	684e      	ldr	r6, [r1, #4]
 8003848:	fa06 f60b 	lsl.w	r6, r6, fp
 800384c:	ea4a 0606 	orr.w	r6, sl, r6
 8003850:	f840 600c 	str.w	r6, [r0, ip]
      assert_param(IS_LL_GPIO_MODE(GPIO_InitStruct->Mode));
      
      /* Pin Mode configuration */
      LL_GPIO_SetPinMode(GPIOx, currentpin, GPIO_InitStruct->Mode);

      if ((GPIO_InitStruct->Mode == LL_GPIO_MODE_OUTPUT) || (GPIO_InitStruct->Mode == LL_GPIO_MODE_ALTERNATE))
 8003854:	f8d1 a004 	ldr.w	sl, [r1, #4]
 8003858:	f02a 0a08 	bic.w	sl, sl, #8
 800385c:	f1ba 0f01 	cmp.w	sl, #1
 8003860:	d025      	beq.n	80038ae <LL_GPIO_Init+0xc0>

        /* Output mode configuration*/
        LL_GPIO_SetPinOutputType(GPIOx, currentpin, GPIO_InitStruct->OutputType);
      }
    }
    pinpos++;
 8003862:	3201      	adds	r2, #1
  while ((pinmask  >> pinpos) != 0u)
 8003864:	fa39 f302 	lsrs.w	r3, r9, r2
 8003868:	d050      	beq.n	800390c <LL_GPIO_Init+0x11e>
    if ((pinmask & (1u << pinpos)) != 0u)
 800386a:	fa0e f302 	lsl.w	r3, lr, r2
 800386e:	ea13 0f09 	tst.w	r3, r9
 8003872:	d0f6      	beq.n	8003862 <LL_GPIO_Init+0x74>
      if (pinpos < GPIO_PIN_MASK_POS)
 8003874:	2a07      	cmp	r2, #7
        currentpin = (0x00000101uL << pinpos);
 8003876:	bf91      	iteee	ls
 8003878:	fa07 f302 	lslls.w	r3, r7, r2
        currentpin = ((0x00010001u << (pinpos - GPIO_PIN_MASK_POS)) | 0x04000000u);
 800387c:	f1a2 0308 	subhi.w	r3, r2, #8
 8003880:	fa05 f303 	lslhi.w	r3, r5, r3
 8003884:	f043 6380 	orrhi.w	r3, r3, #67108864	@ 0x4000000
      if (GPIO_InitStruct->Mode == LL_GPIO_MODE_INPUT)
 8003888:	684e      	ldr	r6, [r1, #4]
 800388a:	2e08      	cmp	r6, #8
 800388c:	d1c7      	bne.n	800381e <LL_GPIO_Init+0x30>
  *         @arg @ref LL_GPIO_PULL_UP
  * @retval None
  */
__STATIC_INLINE void LL_GPIO_SetPinPull(GPIO_TypeDef *GPIOx, uint32_t Pin, uint32_t Pull)
{
  MODIFY_REG(GPIOx->ODR, (Pin >> GPIO_PIN_MASK_POS), Pull << (POSITION_VAL(Pin >> GPIO_PIN_MASK_POS)));
 800388e:	68c6      	ldr	r6, [r0, #12]
 8003890:	ea4f 2c13 	mov.w	ip, r3, lsr #8
 8003894:	fa9c faac 	rbit	sl, ip
 8003898:	faba fa8a 	clz	sl, sl
 800389c:	ea26 0c0c 	bic.w	ip, r6, ip
 80038a0:	690e      	ldr	r6, [r1, #16]
 80038a2:	fa06 f60a 	lsl.w	r6, r6, sl
 80038a6:	ea4c 0606 	orr.w	r6, ip, r6
 80038aa:	60c6      	str	r6, [r0, #12]
}
 80038ac:	e7b7      	b.n	800381e <LL_GPIO_Init+0x30>
 80038ae:	fa93 faa3 	rbit	sl, r3
  MODIFY_REG(*pReg, (GPIO_CRL_MODE0 << (POSITION_VAL(Pin) * 4U)),
 80038b2:	faba fa8a 	clz	sl, sl
 80038b6:	fa93 fba3 	rbit	fp, r3
 80038ba:	fabb fb8b 	clz	fp, fp
 80038be:	ea4f 0a8a 	mov.w	sl, sl, lsl #2
 80038c2:	fa08 fa0a 	lsl.w	sl, r8, sl
 80038c6:	ea26 0a0a 	bic.w	sl, r6, sl
 80038ca:	ea4f 0b8b 	mov.w	fp, fp, lsl #2
 80038ce:	688e      	ldr	r6, [r1, #8]
 80038d0:	fa06 f60b 	lsl.w	r6, r6, fp
 80038d4:	ea4a 0606 	orr.w	r6, sl, r6
 80038d8:	f840 600c 	str.w	r6, [r0, ip]
 80038dc:	fa93 faa3 	rbit	sl, r3
  MODIFY_REG(*pReg, (GPIO_CRL_CNF0_0 << (POSITION_VAL(Pin) * 4U)),
 80038e0:	faba fa8a 	clz	sl, sl
 80038e4:	fa93 f3a3 	rbit	r3, r3
 80038e8:	fab3 f383 	clz	r3, r3
 80038ec:	ea4f 0a8a 	mov.w	sl, sl, lsl #2
 80038f0:	f04f 0b04 	mov.w	fp, #4
 80038f4:	fa0b fa0a 	lsl.w	sl, fp, sl
 80038f8:	ea26 0a0a 	bic.w	sl, r6, sl
 80038fc:	009b      	lsls	r3, r3, #2
 80038fe:	68ce      	ldr	r6, [r1, #12]
 8003900:	409e      	lsls	r6, r3
 8003902:	ea4a 0606 	orr.w	r6, sl, r6
 8003906:	f840 600c 	str.w	r6, [r0, ip]
}
 800390a:	e7aa      	b.n	8003862 <LL_GPIO_Init+0x74>
  }
  return (SUCCESS);
}
 800390c:	2000      	movs	r0, #0
 800390e:	e8bd 8ff0 	ldmia.w	sp!, {r4, r5, r6, r7, r8, r9, sl, fp, pc}
 8003912:	2000      	movs	r0, #0
 8003914:	4770      	bx	lr
	...

08003918 <__errno>:
 8003918:	4b01      	ldr	r3, [pc, #4]	@ (8003920 <__errno+0x8>)
 800391a:	6818      	ldr	r0, [r3, #0]
 800391c:	4770      	bx	lr
 800391e:	bf00      	nop
 8003920:	20000014 	.word	0x20000014

08003924 <__libc_init_array>:
 8003924:	b570      	push	{r4, r5, r6, lr}
 8003926:	2600      	movs	r6, #0
 8003928:	4d0c      	ldr	r5, [pc, #48]	@ (800395c <__libc_init_array+0x38>)
 800392a:	4c0d      	ldr	r4, [pc, #52]	@ (8003960 <__libc_init_array+0x3c>)
 800392c:	1b64      	subs	r4, r4, r5
 800392e:	10a4      	asrs	r4, r4, #2
 8003930:	42a6      	cmp	r6, r4
 8003932:	d109      	bne.n	8003948 <__libc_init_array+0x24>
 8003934:	f000 f910 	bl	8003b58 <_init>
 8003938:	2600      	movs	r6, #0
 800393a:	4d0a      	ldr	r5, [pc, #40]	@ (8003964 <__libc_init_array+0x40>)
 800393c:	4c0a      	ldr	r4, [pc, #40]	@ (8003968 <__libc_init_array+0x44>)
 800393e:	1b64      	subs	r4, r4, r5
 8003940:	10a4      	asrs	r4, r4, #2
 8003942:	42a6      	cmp	r6, r4
 8003944:	d105      	bne.n	8003952 <__libc_init_array+0x2e>
 8003946:	bd70      	pop	{r4, r5, r6, pc}
 8003948:	f855 3b04 	ldr.w	r3, [r5], #4
 800394c:	4798      	blx	r3
 800394e:	3601      	adds	r6, #1
 8003950:	e7ee      	b.n	8003930 <__libc_init_array+0xc>
 8003952:	f855 3b04 	ldr.w	r3, [r5], #4
 8003956:	4798      	blx	r3
 8003958:	3601      	adds	r6, #1
 800395a:	e7f2      	b.n	8003942 <__libc_init_array+0x1e>
 800395c:	08003cf0 	.word	0x08003cf0
 8003960:	08003cf0 	.word	0x08003cf0
 8003964:	08003cf0 	.word	0x08003cf0
 8003968:	08003cf4 	.word	0x08003cf4

0800396c <sqrt>:
 800396c:	b5f8      	push	{r3, r4, r5, r6, r7, lr}
 800396e:	4606      	mov	r6, r0
 8003970:	460f      	mov	r7, r1
 8003972:	f000 f81f 	bl	80039b4 <__ieee754_sqrt>
 8003976:	4632      	mov	r2, r6
 8003978:	4604      	mov	r4, r0
 800397a:	460d      	mov	r5, r1
 800397c:	463b      	mov	r3, r7
 800397e:	4630      	mov	r0, r6
 8003980:	4639      	mov	r1, r7
 8003982:	f7fd f89b 	bl	8000abc <__aeabi_dcmpun>
 8003986:	b990      	cbnz	r0, 80039ae <sqrt+0x42>
 8003988:	2200      	movs	r2, #0
 800398a:	2300      	movs	r3, #0
 800398c:	4630      	mov	r0, r6
 800398e:	4639      	mov	r1, r7
 8003990:	f7fd f86c 	bl	8000a6c <__aeabi_dcmplt>
 8003994:	b158      	cbz	r0, 80039ae <sqrt+0x42>
 8003996:	f7ff ffbf 	bl	8003918 <__errno>
 800399a:	2321      	movs	r3, #33	@ 0x21
 800399c:	2200      	movs	r2, #0
 800399e:	6003      	str	r3, [r0, #0]
 80039a0:	2300      	movs	r3, #0
 80039a2:	4610      	mov	r0, r2
 80039a4:	4619      	mov	r1, r3
 80039a6:	f7fc ff19 	bl	80007dc <__aeabi_ddiv>
 80039aa:	4604      	mov	r4, r0
 80039ac:	460d      	mov	r5, r1
 80039ae:	4620      	mov	r0, r4
 80039b0:	4629      	mov	r1, r5
 80039b2:	bdf8      	pop	{r3, r4, r5, r6, r7, pc}

080039b4 <__ieee754_sqrt>:
 80039b4:	4a65      	ldr	r2, [pc, #404]	@ (8003b4c <__ieee754_sqrt+0x198>)
 80039b6:	e92d 4ff8 	stmdb	sp!, {r3, r4, r5, r6, r7, r8, r9, sl, fp, lr}
 80039ba:	438a      	bics	r2, r1
 80039bc:	4606      	mov	r6, r0
 80039be:	460f      	mov	r7, r1
 80039c0:	460b      	mov	r3, r1
 80039c2:	4604      	mov	r4, r0
 80039c4:	d10e      	bne.n	80039e4 <__ieee754_sqrt+0x30>
 80039c6:	4602      	mov	r2, r0
 80039c8:	f7fc fdde 	bl	8000588 <__aeabi_dmul>
 80039cc:	4602      	mov	r2, r0
 80039ce:	460b      	mov	r3, r1
 80039d0:	4630      	mov	r0, r6
 80039d2:	4639      	mov	r1, r7
 80039d4:	f7fc fc22 	bl	800021c <__adddf3>
 80039d8:	4606      	mov	r6, r0
 80039da:	460f      	mov	r7, r1
 80039dc:	4630      	mov	r0, r6
 80039de:	4639      	mov	r1, r7
 80039e0:	e8bd 8ff8 	ldmia.w	sp!, {r3, r4, r5, r6, r7, r8, r9, sl, fp, pc}
 80039e4:	2900      	cmp	r1, #0
 80039e6:	dc0c      	bgt.n	8003a02 <__ieee754_sqrt+0x4e>
 80039e8:	f021 4200 	bic.w	r2, r1, #2147483648	@ 0x80000000
 80039ec:	4302      	orrs	r2, r0
 80039ee:	d0f5      	beq.n	80039dc <__ieee754_sqrt+0x28>
 80039f0:	b189      	cbz	r1, 8003a16 <__ieee754_sqrt+0x62>
 80039f2:	4602      	mov	r2, r0
 80039f4:	f7fc fc10 	bl	8000218 <__aeabi_dsub>
 80039f8:	4602      	mov	r2, r0
 80039fa:	460b      	mov	r3, r1
 80039fc:	f7fc feee 	bl	80007dc <__aeabi_ddiv>
 8003a00:	e7ea      	b.n	80039d8 <__ieee754_sqrt+0x24>
 8003a02:	150a      	asrs	r2, r1, #20
 8003a04:	d115      	bne.n	8003a32 <__ieee754_sqrt+0x7e>
 8003a06:	2100      	movs	r1, #0
 8003a08:	e009      	b.n	8003a1e <__ieee754_sqrt+0x6a>
 8003a0a:	0ae3      	lsrs	r3, r4, #11
 8003a0c:	3a15      	subs	r2, #21
 8003a0e:	0564      	lsls	r4, r4, #21
 8003a10:	2b00      	cmp	r3, #0
 8003a12:	d0fa      	beq.n	8003a0a <__ieee754_sqrt+0x56>
 8003a14:	e7f7      	b.n	8003a06 <__ieee754_sqrt+0x52>
 8003a16:	460a      	mov	r2, r1
 8003a18:	e7fa      	b.n	8003a10 <__ieee754_sqrt+0x5c>
 8003a1a:	005b      	lsls	r3, r3, #1
 8003a1c:	3101      	adds	r1, #1
 8003a1e:	02d8      	lsls	r0, r3, #11
 8003a20:	d5fb      	bpl.n	8003a1a <__ieee754_sqrt+0x66>
 8003a22:	1e48      	subs	r0, r1, #1
 8003a24:	1a12      	subs	r2, r2, r0
 8003a26:	f1c1 0020 	rsb	r0, r1, #32
 8003a2a:	fa24 f000 	lsr.w	r0, r4, r0
 8003a2e:	4303      	orrs	r3, r0
 8003a30:	408c      	lsls	r4, r1
 8003a32:	2700      	movs	r7, #0
 8003a34:	f2a2 38ff 	subw	r8, r2, #1023	@ 0x3ff
 8003a38:	2116      	movs	r1, #22
 8003a3a:	07d2      	lsls	r2, r2, #31
 8003a3c:	f44f 1000 	mov.w	r0, #2097152	@ 0x200000
 8003a40:	463a      	mov	r2, r7
 8003a42:	f3c3 0313 	ubfx	r3, r3, #0, #20
 8003a46:	f443 1380 	orr.w	r3, r3, #1048576	@ 0x100000
 8003a4a:	bf5c      	itt	pl
 8003a4c:	005b      	lslpl	r3, r3, #1
 8003a4e:	eb03 73d4 	addpl.w	r3, r3, r4, lsr #31
 8003a52:	ea4f 0343 	mov.w	r3, r3, lsl #1
 8003a56:	bf58      	it	pl
 8003a58:	0064      	lslpl	r4, r4, #1
 8003a5a:	eb03 73d4 	add.w	r3, r3, r4, lsr #31
 8003a5e:	ea4f 0868 	mov.w	r8, r8, asr #1
 8003a62:	0064      	lsls	r4, r4, #1
 8003a64:	1815      	adds	r5, r2, r0
 8003a66:	429d      	cmp	r5, r3
 8003a68:	bfde      	ittt	le
 8003a6a:	182a      	addle	r2, r5, r0
 8003a6c:	1b5b      	suble	r3, r3, r5
 8003a6e:	183f      	addle	r7, r7, r0
 8003a70:	0fe5      	lsrs	r5, r4, #31
 8003a72:	3901      	subs	r1, #1
 8003a74:	eb05 0343 	add.w	r3, r5, r3, lsl #1
 8003a78:	ea4f 0444 	mov.w	r4, r4, lsl #1
 8003a7c:	ea4f 0050 	mov.w	r0, r0, lsr #1
 8003a80:	d1f0      	bne.n	8003a64 <__ieee754_sqrt+0xb0>
 8003a82:	460d      	mov	r5, r1
 8003a84:	2620      	movs	r6, #32
 8003a86:	f04f 4000 	mov.w	r0, #2147483648	@ 0x80000000
 8003a8a:	4293      	cmp	r3, r2
 8003a8c:	eb00 0c01 	add.w	ip, r0, r1
 8003a90:	dc02      	bgt.n	8003a98 <__ieee754_sqrt+0xe4>
 8003a92:	d113      	bne.n	8003abc <__ieee754_sqrt+0x108>
 8003a94:	45a4      	cmp	ip, r4
 8003a96:	d811      	bhi.n	8003abc <__ieee754_sqrt+0x108>
 8003a98:	f1bc 0f00 	cmp.w	ip, #0
 8003a9c:	eb0c 0100 	add.w	r1, ip, r0
 8003aa0:	da3e      	bge.n	8003b20 <__ieee754_sqrt+0x16c>
 8003aa2:	2900      	cmp	r1, #0
 8003aa4:	db3c      	blt.n	8003b20 <__ieee754_sqrt+0x16c>
 8003aa6:	f102 0e01 	add.w	lr, r2, #1
 8003aaa:	1a9b      	subs	r3, r3, r2
 8003aac:	4672      	mov	r2, lr
 8003aae:	45a4      	cmp	ip, r4
 8003ab0:	bf88      	it	hi
 8003ab2:	f103 33ff 	addhi.w	r3, r3, #4294967295
 8003ab6:	eba4 040c 	sub.w	r4, r4, ip
 8003aba:	4405      	add	r5, r0
 8003abc:	ea4f 7cd4 	mov.w	ip, r4, lsr #31
 8003ac0:	3e01      	subs	r6, #1
 8003ac2:	eb0c 0343 	add.w	r3, ip, r3, lsl #1
 8003ac6:	ea4f 0444 	mov.w	r4, r4, lsl #1
 8003aca:	ea4f 0050 	mov.w	r0, r0, lsr #1
 8003ace:	d1dc      	bne.n	8003a8a <__ieee754_sqrt+0xd6>
 8003ad0:	431c      	orrs	r4, r3
 8003ad2:	d01a      	beq.n	8003b0a <__ieee754_sqrt+0x156>
 8003ad4:	4c1e      	ldr	r4, [pc, #120]	@ (8003b50 <__ieee754_sqrt+0x19c>)
 8003ad6:	f8df 907c 	ldr.w	r9, [pc, #124]	@ 8003b54 <__ieee754_sqrt+0x1a0>
 8003ada:	e9d4 0100 	ldrd	r0, r1, [r4]
 8003ade:	e9d9 2300 	ldrd	r2, r3, [r9]
 8003ae2:	f7fc fb99 	bl	8000218 <__aeabi_dsub>
 8003ae6:	e9d4 ab00 	ldrd	sl, fp, [r4]
 8003aea:	4602      	mov	r2, r0
 8003aec:	460b      	mov	r3, r1
 8003aee:	4650      	mov	r0, sl
 8003af0:	4659      	mov	r1, fp
 8003af2:	f7fc ffc5 	bl	8000a80 <__aeabi_dcmple>
 8003af6:	b140      	cbz	r0, 8003b0a <__ieee754_sqrt+0x156>
 8003af8:	e9d4 0100 	ldrd	r0, r1, [r4]
 8003afc:	e9d9 2300 	ldrd	r2, r3, [r9]
 8003b00:	f1b5 3fff 	cmp.w	r5, #4294967295
 8003b04:	d10e      	bne.n	8003b24 <__ieee754_sqrt+0x170>
 8003b06:	4635      	mov	r5, r6
 8003b08:	3701      	adds	r7, #1
 8003b0a:	107b      	asrs	r3, r7, #1
 8003b0c:	f103 537f 	add.w	r3, r3, #1069547520	@ 0x3fc00000
 8003b10:	f503 1300 	add.w	r3, r3, #2097152	@ 0x200000
 8003b14:	eb03 5108 	add.w	r1, r3, r8, lsl #20
 8003b18:	086b      	lsrs	r3, r5, #1
 8003b1a:	ea43 70c7 	orr.w	r0, r3, r7, lsl #31
 8003b1e:	e75b      	b.n	80039d8 <__ieee754_sqrt+0x24>
 8003b20:	4696      	mov	lr, r2
 8003b22:	e7c2      	b.n	8003aaa <__ieee754_sqrt+0xf6>
 8003b24:	f7fc fb7a 	bl	800021c <__adddf3>
 8003b28:	e9d4 ab00 	ldrd	sl, fp, [r4]
 8003b2c:	4602      	mov	r2, r0
 8003b2e:	460b      	mov	r3, r1
 8003b30:	4650      	mov	r0, sl
 8003b32:	4659      	mov	r1, fp
 8003b34:	f7fc ff9a 	bl	8000a6c <__aeabi_dcmplt>
 8003b38:	b120      	cbz	r0, 8003b44 <__ieee754_sqrt+0x190>
 8003b3a:	1cab      	adds	r3, r5, #2
 8003b3c:	bf08      	it	eq
 8003b3e:	3701      	addeq	r7, #1
 8003b40:	3502      	adds	r5, #2
 8003b42:	e7e2      	b.n	8003b0a <__ieee754_sqrt+0x156>
 8003b44:	1c6b      	adds	r3, r5, #1
 8003b46:	f023 0501 	bic.w	r5, r3, #1
 8003b4a:	e7de      	b.n	8003b0a <__ieee754_sqrt+0x156>
 8003b4c:	7ff00000 	.word	0x7ff00000
 8003b50:	08003ce8 	.word	0x08003ce8
 8003b54:	08003ce0 	.word	0x08003ce0

08003b58 <_init>:
 8003b58:	b5f8      	push	{r3, r4, r5, r6, r7, lr}
 8003b5a:	bf00      	nop
 8003b5c:	bcf8      	pop	{r3, r4, r5, r6, r7}
 8003b5e:	bc08      	pop	{r3}
 8003b60:	469e      	mov	lr, r3
 8003b62:	4770      	bx	lr

08003b64 <_fini>:
 8003b64:	b5f8      	push	{r3, r4, r5, r6, r7, lr}
 8003b66:	bf00      	nop
 8003b68:	bcf8      	pop	{r3, r4, r5, r6, r7}
 8003b6a:	bc08      	pop	{r3}
 8003b6c:	469e      	mov	lr, r3
 8003b6e:	4770      	bx	lr
